Certificate:
    Data:
        Version: 3 (0x2)
        Serial Number: 8 (0x8)
    Signature Algorithm: sha256WithRSAEncryption
        Issuer: C=FR, O=Projet PKI, OU=Projet PKI Certificate Authority, CN=Projet PKI Auth CA
        Validity
            Not Before: Mar  8 12:49:40 2019 GMT
            Not After : Jan  1 00:00:00 2020 GMT
        Subject: C=FR, ST=Var, L=Toulon, O=Projet PKI, OU=test, CN=test
        Subject Public Key Info:
            Public Key Algorithm: rsaEncryption
                Public-Key: (3072 bit)
                Modulus:
                    00:d1:a1:cf:21:85:61:d1:02:c4:9a:2b:1e:77:75:
                    33:75:cc:78:58:f0:29:b8:f5:e8:94:8b:51:f2:27:
                    5b:2f:a6:b1:24:16:5f:f0:ba:a2:5f:ab:74:1b:52:
                    6a:3a:d1:59:80:d8:2c:4c:d2:d5:f8:c6:41:3d:c0:
                    a2:54:d8:5a:97:dd:9f:b4:1c:b3:0b:b3:bc:5d:ce:
                    aa:24:c4:8d:e9:79:ff:2d:d6:69:ff:af:0e:54:a1:
                    be:48:1e:00:55:e1:b6:f4:31:32:c6:b9:20:56:60:
                    0a:71:07:e9:a4:a5:9f:2a:55:56:de:47:9d:27:a1:
                    77:dc:ab:6c:3d:f0:47:80:8c:32:b9:26:64:e0:45:
                    e7:99:6b:47:62:80:6a:ad:95:3b:fb:81:41:a4:4a:
                    9a:8c:85:3d:dc:74:72:29:07:89:f3:78:4f:b8:e2:
                    58:c1:03:00:6f:f8:b8:72:98:1d:3c:4f:90:c2:e3:
                    33:1b:91:d6:70:ad:3b:3a:9b:48:b9:a9:52:8b:f9:
                    7b:43:b0:58:44:a1:03:53:10:34:40:d5:0d:a1:86:
                    15:8d:c8:52:3b:9a:2d:6e:59:15:3d:79:ec:3f:52:
                    52:b0:38:a8:c9:dd:07:17:20:71:e0:bb:0c:5d:48:
                    be:d1:44:15:38:07:c3:35:4e:a9:a6:c5:2a:ea:5d:
                    29:02:4d:c8:e0:c8:08:6e:02:ec:82:17:fc:73:28:
                    b9:ec:c8:9d:ba:8a:78:39:43:67:84:0e:93:fd:11:
                    37:ee:f0:f8:1b:e7:b4:a6:0c:ad:21:5e:44:77:6d:
                    f1:cc:6a:e7:54:27:61:17:d2:5e:d8:a0:09:e2:cf:
                    96:44:6e:bf:e9:95:76:a1:97:de:18:9d:b5:fa:0c:
                    cb:8c:7b:c7:12:43:d0:03:92:e7:14:8a:52:69:87:
                    74:45:af:97:e1:11:f9:66:88:b2:9a:6d:16:c7:33:
                    17:28:d5:10:69:f4:db:82:10:0e:c5:24:97:d9:f9:
                    94:96:b5:b2:98:7f:ec:f6:19:f1
                Exponent: 65537 (0x10001)
        X509v3 extensions:
            X509v3 Key Usage: critical
                Digital Signature
            X509v3 Basic Constraints: 
                CA:FALSE
            X509v3 Extended Key Usage: 
                TLS Web Client Authentication
            X509v3 Subject Key Identifier: 
                9D:D0:FF:0C:E2:44:AA:A2:01:17:1E:82:2C:4F:E1:EE:44:84:3F:A8
            X509v3 Authority Key Identifier: 
                keyid:BE:B1:3D:58:AD:A3:FF:8B:B8:1B:73:ED:8D:22:88:9D:30:C2:AF:13

            Authority Information Access: 
                CA Issuers - URI:https://herrenschmidt.pro/ca/auth-ca.cer

            X509v3 CRL Distribution Points: 

                Full Name:
                  URI:https://herrenschmidt.pro/ca/auth-ca.crl

            X509v3 Subject Alternative Name: 
                email:felix@herrenschmidt.pro
    Signature Algorithm: sha256WithRSAEncryption
         b4:71:95:f4:60:7f:29:0a:f3:77:86:dc:6f:00:c9:fe:4b:cf:
         43:1f:10:5d:a6:a4:73:11:a6:54:bd:b5:ac:22:71:e6:d2:b2:
         53:ad:c1:15:5e:3a:f9:7e:d7:e9:44:da:65:e3:2f:85:56:56:
         ab:85:a6:f6:a7:8f:a4:c1:be:04:cd:69:0b:b0:6d:a0:19:ed:
         30:45:34:d2:b6:93:0c:82:91:54:5a:20:9c:d7:f9:ad:db:9b:
         db:b9:7c:4e:80:9a:f3:87:73:e4:0d:78:4d:45:0a:f2:36:3f:
         1d:26:4d:38:6f:fd:8a:6a:e5:a7:38:88:58:ae:6e:83:41:35:
         c3:55:f5:d3:52:1b:5b:57:22:ae:a5:cf:d6:58:9c:55:8d:51:
         c2:f7:a7:35:ff:3e:c4:f0:1f:3a:af:64:a0:b2:a1:49:a0:76:
         f3:5f:90:83:07:9e:2a:43:20:04:3d:42:1c:b2:d7:a1:6d:c9:
         68:54:b7:0d:99:67:a4:b5:09:32:83:4f:1d:46:9f:f8:a1:91:
         bf:bb:89:0a:69:06:ce:6a:ba:ab:f3:27:82:73:de:a9:d9:d5:
         68:83:66:b7:a1:5d:43:69:20:a5:ee:97:6a:5b:c4:2b:44:03:
         b5:a5:86:b8:c3:ba:ed:1e:78:20:a6:5e:13:ed:83:d1:fa:5a:
         f1:1f:48:ef:9c:ad:60:0c:76:c8:d2:f4:31:39:37:e9:6e:bd:
         2b:08:09:6c:de:59:89:5e:4e:5d:74:3e:ad:39:6e:2a:1a:ad:
         67:f2:dc:d8:95:50:bb:75:71:5f:0c:6c:17:01:e9:b1:7e:81:
         f8:1e:61:fd:df:0e:ee:11:f2:64:a4:6e:1c:d4:45:de:24:14:
         9c:b5:4d:80:95:05:10:d1:02:2b:ce:38:ed:39:a8:bc:31:55:
         05:38:a0:b8:76:dc:39:54:08:9c:4a:20:da:cf:9a:80:f4:71:
         37:60:4c:e1:ba:a3:47:b6:0d:c2:a5:e3:c5:6e:0b:0f:3a:fe:
         da:f5:64:48:f9:dd
-----BEGIN CERTIFICATE-----
MIIFXzCCA8egAwIBAgIBCDANBgkqhkiG9w0BAQsFADBqMQswCQYDVQQGEwJGUjET
MBEGA1UECgwKUHJvamV0IFBLSTEpMCcGA1UECwwgUHJvamV0IFBLSSBDZXJ0aWZp
Y2F0ZSBBdXRob3JpdHkxGzAZBgNVBAMMElByb2pldCBQS0kgQXV0aCBDQTAeFw0x
OTAzMDgxMjQ5NDBaFw0yMDAxMDEwMDAwMDBaMF8xCzAJBgNVBAYTAkZSMQwwCgYD
VQQIDANWYXIxDzANBgNVBAcMBlRvdWxvbjETMBEGA1UECgwKUHJvamV0IFBLSTEN
MAsGA1UECwwEdGVzdDENMAsGA1UEAwwEdGVzdDCCAaIwDQYJKoZIhvcNAQEBBQAD
ggGPADCCAYoCggGBANGhzyGFYdECxJorHnd1M3XMeFjwKbj16JSLUfInWy+msSQW
X/C6ol+rdBtSajrRWYDYLEzS1fjGQT3AolTYWpfdn7QcswuzvF3OqiTEjel5/y3W
af+vDlShvkgeAFXhtvQxMsa5IFZgCnEH6aSlnypVVt5HnSehd9yrbD3wR4CMMrkm
ZOBF55lrR2KAaq2VO/uBQaRKmoyFPdx0cikHifN4T7jiWMEDAG/4uHKYHTxPkMLj
MxuR1nCtOzqbSLmpUov5e0OwWEShA1MQNEDVDaGGFY3IUjuaLW5ZFT157D9SUrA4
qMndBxcgceC7DF1IvtFEFTgHwzVOqabFKupdKQJNyODICG4C7IIX/HMouezInbqK
eDlDZ4QOk/0RN+7w+BvntKYMrSFeRHdt8cxq51QnYRfSXtigCeLPlkRuv+mVdqGX
3hidtfoMy4x7xxJD0AOS5xSKUmmHdEWvl+ER+WaIspptFsczFyjVEGn024IQDsUk
l9n5lJa1sph/7PYZ8QIDAQABo4IBGTCCARUwDgYDVR0PAQH/BAQDAgeAMAkGA1Ud
EwQCMAAwEwYDVR0lBAwwCgYIKwYBBQUHAwIwHQYDVR0OBBYEFJ3Q/wziRKqiARce
gixP4e5EhD+oMB8GA1UdIwQYMBaAFL6xPVito/+LuBtz7Y0iiJ0wwq8TMEQGCCsG
AQUFBwEBBDgwNjA0BggrBgEFBQcwAoYoaHR0cHM6Ly9oZXJyZW5zY2htaWR0LnBy
by9jYS9hdXRoLWNhLmNlcjA5BgNVHR8EMjAwMC6gLKAqhihodHRwczovL2hlcnJl
bnNjaG1pZHQucHJvL2NhL2F1dGgtY2EuY3JsMCIGA1UdEQQbMBmBF2ZlbGl4QGhl
cnJlbnNjaG1pZHQucHJvMA0GCSqGSIb3DQEBCwUAA4IBgQC0cZX0YH8pCvN3htxv
AMn+S89DHxBdpqRzEaZUvbWsInHm0rJTrcEVXjr5ftfpRNpl4y+FVlarhab2p4+k
wb4EzWkLsG2gGe0wRTTStpMMgpFUWiCc1/mt25vbuXxOgJrzh3PkDXhNRQryNj8d
Jk04b/2KauWnOIhYrm6DQTXDVfXTUhtbVyKupc/WWJxVjVHC96c1/z7E8B86r2Sg
sqFJoHbzX5CDB54qQyAEPUIcstehbcloVLcNmWektQkyg08dRp/4oZG/u4kKaQbO
arqr8yeCc96p2dVog2a3oV1DaSCl7pdqW8QrRAO1pYa4w7rtHnggpl4T7YPR+lrx
H0jvnK1gDHbI0vQxOTfpbr0rCAls3lmJXk5ddD6tOW4qGq1n8tzYlVC7dXFfDGwX
AemxfoH4HmH93w7uEfJkpG4c1EXeJBSctU2AlQUQ0QIrzjjtOai8MVUFOKC4dtw5
VAicSiDaz5qA9HE3YEzhuqNHtg3CpePFbgsPOv7a9WRI+d0=
-----END CERTIFICATE-----
Certificate:
    Data:
        Version: 3 (0x2)
        Serial Number: 12 (0xc)
    Signature Algorithm: sha256WithRSAEncryption
        Issuer: C=FR, O=Projet PKI, OU=Projet PKI Certificate Authority, CN=Projet PKI Root CA
        Validity
            Not Before: Mar  8 08:28:30 2019 GMT
            Not After : Dec 31 23:59:59 2030 GMT
        Subject: C=FR, O=Projet PKI, OU=Projet PKI Certificate Authority, CN=Projet PKI Auth CA
        Subject Public Key Info:
            Public Key Algorithm: rsaEncryption
                Public-Key: (3072 bit)
                Modulus:
                    00:c1:21:df:05:4c:a4:bd:f1:bb:ab:3c:ff:49:5c:
                    79:97:c4:4e:14:a0:64:d9:8b:95:c7:69:ba:1c:68:
                    15:34:b4:da:56:2d:f6:65:56:5e:46:14:da:cc:c2:
                    8b:6c:eb:f3:aa:55:12:d6:48:02:26:a1:57:dc:8e:
                    f8:4c:19:ea:a1:b3:fd:48:5c:79:2e:0a:50:9a:b4:
                    2c:a5:49:45:7d:a8:6e:c8:a4:69:61:3c:81:97:f8:
                    85:5e:22:df:ba:b7:aa:78:2d:86:3b:54:3b:ea:d4:
                    5d:f8:6e:22:fb:c1:c8:01:a7:4d:fe:f7:46:aa:51:
                    30:d6:87:19:bc:59:e7:95:86:29:7c:bd:a2:f0:74:
                    16:ca:32:88:19:87:88:a9:57:b3:3c:af:70:1e:8d:
                    87:34:78:36:f5:a4:4e:a0:7e:7e:d3:cf:05:bd:c7:
                    4d:03:59:54:4f:c9:6d:c3:89:59:ab:64:7a:fe:49:
                    df:ed:d4:56:e7:20:73:49:72:14:18:68:0a:ab:1c:
                    84:c0:75:cf:1d:17:4a:78:c0:b6:a2:d6:cf:0b:a3:
                    36:b2:ab:e4:7d:af:78:8c:2c:d7:ed:03:cd:f3:c6:
                    2f:6d:a5:45:93:e2:c3:0c:6d:99:ba:99:14:66:cd:
                    dc:bd:e7:d2:f0:a5:aa:92:f3:09:8e:5e:6d:7a:60:
                    b6:76:ac:de:7d:1f:d0:b2:64:d1:a7:7f:5c:c9:63:
                    d0:36:7d:3e:0b:61:19:72:94:8f:b9:ee:f6:c6:08:
                    3d:02:38:b8:76:06:42:1e:a6:f6:52:5e:20:db:fa:
                    c7:37:e9:db:a9:6c:0f:6a:a6:65:7b:11:d4:59:38:
                    4f:d5:16:76:e3:2a:0b:3f:59:d9:20:07:0a:63:06:
                    b8:d6:34:5f:8e:39:a6:be:b4:5f:29:09:c3:24:16:
                    3e:56:23:8f:1d:b3:75:9c:d2:60:d4:70:a1:77:e0:
                    a1:83:58:3a:bf:67:8d:68:9e:cd:fc:a7:34:78:95:
                    f4:88:95:f5:bc:96:68:41:07:af
                Exponent: 65537 (0x10001)
        X509v3 extensions:
            X509v3 Key Usage: critical
                Certificate Sign, CRL Sign
            X509v3 Basic Constraints: critical
                CA:TRUE, pathlen:0
            X509v3 Subject Key Identifier: 
                BE:B1:3D:58:AD:A3:FF:8B:B8:1B:73:ED:8D:22:88:9D:30:C2:AF:13
            X509v3 Authority Key Identifier: 
                keyid:AA:B7:CF:6C:2C:D7:77:46:86:71:D2:6A:21:F5:D8:C7:C7:C7:3D:31

            Authority Information Access: 
                CA Issuers - URI:https://herrenschmidt.pro/ca/root-ca.cer

            X509v3 CRL Distribution Points: 

                Full Name:
                  URI:https://herrenschmidt.pro/ca/root-ca.crl

    Signature Algorithm: sha256WithRSAEncryption
         9e:22:d3:c4:28:21:f6:92:cb:ff:1a:d0:94:7c:82:2a:32:d5:
         a5:74:7c:3c:7b:49:c1:e0:91:50:55:13:71:8d:94:9e:b3:66:
         43:b3:e1:9c:f7:23:2a:34:48:35:68:83:97:77:90:09:72:d8:
         91:58:62:80:35:c3:ff:a5:0b:0b:85:bd:8d:7a:38:f8:55:fd:
         62:20:4d:42:66:5e:26:27:33:79:c6:fd:be:61:c1:6e:66:11:
         49:bf:b2:36:09:8b:23:e1:74:03:6b:0c:de:53:53:11:ac:89:
         39:9e:08:9c:d4:1f:a3:85:5c:d2:bc:f7:90:cf:29:98:6c:56:
         75:c2:b4:27:bc:c2:2d:64:56:b9:84:31:96:5f:27:2a:71:91:
         15:0d:8e:ad:c3:20:f5:5f:bf:00:14:60:5c:28:b1:ee:5d:8a:
         f1:1e:bc:0e:a0:f3:09:43:ad:cd:2e:aa:b7:ba:05:8f:b0:19:
         6a:d2:55:c5:cb:52:eb:08:bc:7c:81:0e:37:9d:94:4c:f5:0b:
         15:e1:c0:66:32:99:27:ad:91:7a:f4:75:c9:28:37:71:a0:98:
         01:7d:70:8f:fa:66:0a:59:ad:32:66:95:f8:19:91:cd:76:05:
         bd:47:7d:da:22:df:29:46:23:bb:4b:26:5f:e4:30:11:91:28:
         c3:12:00:24:37:80:3b:1c:7b:0c:83:d0:fe:5a:4a:8e:80:e5:
         76:5b:3f:14:d8:7f:ef:cd:82:4f:04:67:af:dd:70:ac:b0:aa:
         07:f9:30:40:9d:ca:31:e7:c5:cd:f1:7b:73:81:24:aa:ca:a5:
         13:40:2a:53:c7:94:dd:5f:36:aa:10:d5:da:24:4b:03:33:f5:
         4b:d3:76:ff:22:13:08:77:20:0e:31:71:c0:d0:f4:61:31:12:
         a4:db:46:7b:f6:36:b6:b6:25:3c:47:41:8c:32:da:fb:96:fb:
         f7:59:75:6c:c7:70:70:0b:05:ca:1c:36:cc:40:5c:69:9a:37:
         e3:4d:9f:e4:f2:47
-----BEGIN CERTIFICATE-----
MIIFODCCA6CgAwIBAgIBDDANBgkqhkiG9w0BAQsFADBqMQswCQYDVQQGEwJGUjET
MBEGA1UECgwKUHJvamV0IFBLSTEpMCcGA1UECwwgUHJvamV0IFBLSSBDZXJ0aWZp
Y2F0ZSBBdXRob3JpdHkxGzAZBgNVBAMMElByb2pldCBQS0kgUm9vdCBDQTAeFw0x
OTAzMDgwODI4MzBaFw0zMDEyMzEyMzU5NTlaMGoxCzAJBgNVBAYTAkZSMRMwEQYD
VQQKDApQcm9qZXQgUEtJMSkwJwYDVQQLDCBQcm9qZXQgUEtJIENlcnRpZmljYXRl
IEF1dGhvcml0eTEbMBkGA1UEAwwSUHJvamV0IFBLSSBBdXRoIENBMIIBojANBgkq
hkiG9w0BAQEFAAOCAY8AMIIBigKCAYEAwSHfBUykvfG7qzz/SVx5l8ROFKBk2YuV
x2m6HGgVNLTaVi32ZVZeRhTazMKLbOvzqlUS1kgCJqFX3I74TBnqobP9SFx5LgpQ
mrQspUlFfahuyKRpYTyBl/iFXiLfureqeC2GO1Q76tRd+G4i+8HIAadN/vdGqlEw
1ocZvFnnlYYpfL2i8HQWyjKIGYeIqVezPK9wHo2HNHg29aROoH5+088FvcdNA1lU
T8ltw4lZq2R6/knf7dRW5yBzSXIUGGgKqxyEwHXPHRdKeMC2otbPC6M2sqvkfa94
jCzX7QPN88YvbaVFk+LDDG2ZupkUZs3cvefS8KWqkvMJjl5temC2dqzefR/QsmTR
p39cyWPQNn0+C2EZcpSPue72xgg9Aji4dgZCHqb2Ul4g2/rHN+nbqWwPaqZlexHU
WThP1RZ24yoLP1nZIAcKYwa41jRfjjmmvrRfKQnDJBY+ViOPHbN1nNJg1HChd+Ch
g1g6v2eNaJ7N/Kc0eJX0iJX1vJZoQQevAgMBAAGjgegwgeUwDgYDVR0PAQH/BAQD
AgEGMBIGA1UdEwEB/wQIMAYBAf8CAQAwHQYDVR0OBBYEFL6xPVito/+LuBtz7Y0i
iJ0wwq8TMB8GA1UdIwQYMBaAFKq3z2ws13dGhnHSaiH12MfHxz0xMEQGCCsGAQUF
BwEBBDgwNjA0BggrBgEFBQcwAoYoaHR0cHM6Ly9oZXJyZW5zY2htaWR0LnByby9j
YS9yb290LWNhLmNlcjA5BgNVHR8EMjAwMC6gLKAqhihodHRwczovL2hlcnJlbnNj
aG1pZHQucHJvL2NhL3Jvb3QtY2EuY3JsMA0GCSqGSIb3DQEBCwUAA4IBgQCeItPE
KCH2ksv/GtCUfIIqMtWldHw8e0nB4JFQVRNxjZSes2ZDs+Gc9yMqNEg1aIOXd5AJ
ctiRWGKANcP/pQsLhb2Nejj4Vf1iIE1CZl4mJzN5xv2+YcFuZhFJv7I2CYsj4XQD
awzeU1MRrIk5ngic1B+jhVzSvPeQzymYbFZ1wrQnvMItZFa5hDGWXycqcZEVDY6t
wyD1X78AFGBcKLHuXYrxHrwOoPMJQ63NLqq3ugWPsBlq0lXFy1LrCLx8gQ43nZRM
9QsV4cBmMpknrZF69HXJKDdxoJgBfXCP+mYKWa0yZpX4GZHNdgW9R33aIt8pRiO7
SyZf5DARkSjDEgAkN4A7HHsMg9D+WkqOgOV2Wz8U2H/vzYJPBGev3XCssKoH+TBA
ncox58XN8XtzgSSqyqUTQCpTx5TdXzaqENXaJEsDM/VL03b/IhMIdyAOMXHA0PRh
MRKk20Z79ja2tiU8R0GMMtr7lvv3WXVsx3BwCwXKHDbMQFxpmjfjTZ/k8kc=
-----END CERTIFICATE-----
Certificate:
    Data:
        Version: 3 (0x2)
        Serial Number: 7 (0x7)
    Signature Algorithm: sha256WithRSAEncryption
        Issuer: C=FR, O=Projet PKI, OU=Projet PKI Certificate Authority, CN=Projet PKI Root CA
        Validity
            Not Before: Mar  7 10:53:44 2019 GMT
            Not After : Dec 31 23:59:59 2030 GMT
        Subject: C=FR, O=Projet PKI, OU=Projet PKI Certificate Authority, CN=Projet PKI Root CA
        Subject Public Key Info:
            Public Key Algorithm: rsaEncryption
                Public-Key: (3072 bit)
                Modulus:
                    00:ee:ca:fc:4a:a2:a6:4a:96:61:b1:ca:02:5a:59:
                    58:6a:92:93:3c:c3:59:77:ce:71:88:6b:83:b4:8c:
                    b8:6e:b4:db:c0:92:35:a3:e9:ff:8f:ba:77:e6:dd:
                    63:a8:ce:34:4b:8b:c3:5d:0c:d9:27:ee:e3:0d:00:
                    48:bc:5c:b0:f6:ad:92:a8:53:2a:e2:bf:63:9e:f7:
                    83:c4:fd:76:89:0b:0c:17:d7:42:8a:5b:98:03:e7:
                    7b:a0:8b:bd:c2:c7:69:8c:41:4b:14:45:05:38:d6:
                    4e:0d:a5:25:ab:fc:ff:84:33:1c:2a:36:4b:3e:66:
                    22:d1:41:41:ee:65:86:f3:f6:b3:a7:eb:c1:9c:6f:
                    b0:c8:ab:e6:71:a9:79:1d:72:0a:df:22:4e:f7:cc:
                    ef:00:b2:d2:f9:02:6d:24:19:92:f8:f9:53:d1:47:
                    9b:97:2a:72:c4:c2:64:47:c5:b0:3d:8f:7a:62:79:
                    c8:30:bf:89:ad:e6:4f:a4:02:c6:28:58:26:71:09:
                    6d:1c:f9:40:29:d3:ef:b9:f5:8e:1b:9d:7a:69:f0:
                    f0:fc:7a:a1:07:b8:de:16:b2:5a:dd:f7:ca:fb:59:
                    d2:96:6e:99:bc:a5:b2:de:bc:3e:b5:13:29:8c:38:
                    cb:a4:99:80:51:49:90:9a:b0:1b:e3:98:8a:82:0e:
                    1e:ba:2d:b0:27:3c:65:82:ad:9e:c7:30:b4:1d:f2:
                    16:fc:79:14:79:d6:96:ef:36:4f:81:3c:73:e1:e8:
                    d3:d8:39:e7:48:06:ac:56:ef:0d:c2:68:71:93:8b:
                    c1:c7:11:27:6a:d1:a7:a5:4e:f0:de:48:a2:9e:d3:
                    19:4a:8e:82:78:d2:19:e6:56:68:26:50:ef:b9:5e:
                    72:62:76:5e:4f:f8:95:46:2e:59:67:70:7e:31:57:
                    98:52:08:a9:70:3e:1a:95:5e:52:19:40:8e:e2:f6:
                    71:96:d4:5b:20:9f:92:e4:7c:d1:64:3f:11:d1:ed:
                    17:2f:cb:8e:cc:1e:32:ab:05:49
                Exponent: 65537 (0x10001)
        X509v3 extensions:
            X509v3 Key Usage: critical
                Certificate Sign, CRL Sign
            X509v3 Basic Constraints: critical
                CA:TRUE
            X509v3 Subject Key Identifier: 
                AA:B7:CF:6C:2C:D7:77:46:86:71:D2:6A:21:F5:D8:C7:C7:C7:3D:31
            X509v3 Authority Key Identifier: 
                keyid:AA:B7:CF:6C:2C:D7:77:46:86:71:D2:6A:21:F5:D8:C7:C7:C7:3D:31

    Signature Algorithm: sha256WithRSAEncryption
         d6:6e:b3:74:fe:88:13:fa:db:a2:11:a6:b7:6b:f1:cc:97:61:
         86:46:e4:37:50:81:11:94:a4:fa:5b:6f:45:3d:bd:bc:f1:88:
         55:b4:30:c6:e1:01:42:77:68:bd:e6:09:86:0d:54:04:3e:56:
         08:9f:ad:dc:74:7e:c8:a8:84:6f:3d:66:58:86:e4:d3:60:be:
         98:f1:f2:00:75:78:5a:75:88:c0:1d:71:8a:7c:ec:ea:31:bb:
         7e:08:cc:57:f8:5b:da:35:33:ae:67:4e:31:5f:3f:fd:bf:82:
         c5:cd:ad:03:0f:d4:7e:50:21:55:65:be:97:eb:34:2b:c5:aa:
         1b:d5:ee:99:c9:44:16:11:25:74:14:ee:c0:2c:fe:21:26:a6:
         51:56:ec:ed:91:b4:ee:b1:e4:3a:4b:56:86:28:a1:46:7b:30:
         52:af:50:d7:c8:10:2d:1e:8c:dd:96:a2:60:db:e4:30:f6:8f:
         a5:98:83:5b:7f:6b:98:9a:4a:e5:42:7a:dc:8f:db:a2:7b:3f:
         3a:f0:f3:16:06:6d:d3:67:99:b0:00:95:c0:f3:4c:93:9d:f8:
         c6:cf:fa:dd:6d:66:43:21:89:9d:c7:c8:85:d2:17:62:0e:cd:
         a2:ae:10:83:31:c9:ee:12:e1:0d:8a:45:cd:96:a3:61:ee:9d:
         ed:cd:13:0f:9c:10:96:a7:58:05:c4:50:91:64:c3:53:d0:66:
         f1:fa:f5:92:6b:34:28:09:7a:6b:16:17:01:36:2b:ba:42:14:
         be:98:5c:18:50:c4:f5:16:9a:41:f7:d6:ba:c9:63:be:1c:60:
         a1:82:8c:34:4d:93:be:3f:d4:ee:6d:b8:d7:c8:6c:be:aa:d8:
         71:6e:96:9c:2b:5f:75:2f:09:45:90:d4:5b:96:b8:dc:fe:f6:
         a2:ca:32:e5:b1:9b:9f:00:c0:64:96:4e:12:ff:db:af:b4:1b:
         d5:0f:0c:dd:24:33:48:74:b3:55:62:99:f9:2b:a4:c4:5b:b8:
         e9:4f:42:9c:d7:e3
-----BEGIN CERTIFICATE-----
MIIEsjCCAxqgAwIBAgIBBzANBgkqhkiG9w0BAQsFADBqMQswCQYDVQQGEwJGUjET
MBEGA1UECgwKUHJvamV0IFBLSTEpMCcGA1UECwwgUHJvamV0IFBLSSBDZXJ0aWZp
Y2F0ZSBBdXRob3JpdHkxGzAZBgNVBAMMElByb2pldCBQS0kgUm9vdCBDQTAeFw0x
OTAzMDcxMDUzNDRaFw0zMDEyMzEyMzU5NTlaMGoxCzAJBgNVBAYTAkZSMRMwEQYD
VQQKDApQcm9qZXQgUEtJMSkwJwYDVQQLDCBQcm9qZXQgUEtJIENlcnRpZmljYXRl
IEF1dGhvcml0eTEbMBkGA1UEAwwSUHJvamV0IFBLSSBSb290IENBMIIBojANBgkq
hkiG9w0BAQEFAAOCAY8AMIIBigKCAYEA7sr8SqKmSpZhscoCWllYapKTPMNZd85x
iGuDtIy4brTbwJI1o+n/j7p35t1jqM40S4vDXQzZJ+7jDQBIvFyw9q2SqFMq4r9j
nveDxP12iQsMF9dCiluYA+d7oIu9wsdpjEFLFEUFONZODaUlq/z/hDMcKjZLPmYi
0UFB7mWG8/azp+vBnG+wyKvmcal5HXIK3yJO98zvALLS+QJtJBmS+PlT0Ueblypy
xMJkR8WwPY96YnnIML+JreZPpALGKFgmcQltHPlAKdPvufWOG516afDw/HqhB7je
FrJa3ffK+1nSlm6ZvKWy3rw+tRMpjDjLpJmAUUmQmrAb45iKgg4eui2wJzxlgq2e
xzC0HfIW/HkUedaW7zZPgTxz4ejT2DnnSAasVu8Nwmhxk4vBxxEnatGnpU7w3kii
ntMZSo6CeNIZ5lZoJlDvuV5yYnZeT/iVRi5ZZ3B+MVeYUgipcD4alV5SGUCO4vZx
ltRbIJ+S5HzRZD8R0e0XL8uOzB4yqwVJAgMBAAGjYzBhMA4GA1UdDwEB/wQEAwIB
BjAPBgNVHRMBAf8EBTADAQH/MB0GA1UdDgQWBBSqt89sLNd3RoZx0moh9djHx8c9
MTAfBgNVHSMEGDAWgBSqt89sLNd3RoZx0moh9djHx8c9MTANBgkqhkiG9w0BAQsF
AAOCAYEA1m6zdP6IE/rbohGmt2vxzJdhhkbkN1CBEZSk+ltvRT29vPGIVbQwxuEB
QndoveYJhg1UBD5WCJ+t3HR+yKiEbz1mWIbk02C+mPHyAHV4WnWIwB1xinzs6jG7
fgjMV/hb2jUzrmdOMV8//b+Cxc2tAw/UflAhVWW+l+s0K8WqG9XumclEFhEldBTu
wCz+ISamUVbs7ZG07rHkOktWhiihRnswUq9Q18gQLR6M3ZaiYNvkMPaPpZiDW39r
mJpK5UJ63I/bons/OvDzFgZt02eZsACVwPNMk534xs/63W1mQyGJncfIhdIXYg7N
oq4QgzHJ7hLhDYpFzZajYe6d7c0TD5wQlqdYBcRQkWTDU9Bm8fr1kms0KAl6axYX
ATYrukIUvphcGFDE9RaaQffWusljvhxgoYKMNE2Tvj/U7m2418hsvqrYcW6WnCtf
dS8JRZDUW5a43P72osoy5bGbnwDAZJZOEv/br7Qb1Q8M3SQzSHSzVWKZ+SukxFu4
6U9CnNfj
-----END CERTIFICATE-----
