Certificate:
    Data:
        Version: 3 (0x2)
        Serial Number: 10 (0xa)
    Signature Algorithm: sha256WithRSAEncryption
        Issuer: C=FR, O=Projet PKI, OU=Projet PKI Certificate Authority, CN=Projet PKI Root CA
        Validity
            Not Before: Mar  7 11:19:49 2019 GMT
            Not After : Dec 31 23:59:59 2030 GMT
        Subject: C=FR, O=Projet PKI, OU=Projet PKI Certificate Authority, CN=Projet PKI Auth CA
        Subject Public Key Info:
            Public Key Algorithm: rsaEncryption
                Public-Key: (3072 bit)
                Modulus:
                    00:d1:84:ce:0e:27:3d:a4:b4:c9:26:33:de:2d:f9:
                    d0:7d:23:cb:81:27:56:44:86:8e:4e:a3:23:ab:49:
                    e8:31:ac:b7:12:85:ee:8c:33:5d:64:2d:63:b2:97:
                    e0:df:9e:b9:c1:a0:aa:3a:d3:d3:2d:54:77:a8:45:
                    89:48:da:bc:32:9c:e1:07:ac:28:75:43:9e:8e:3d:
                    36:17:c3:b4:84:2d:f4:44:d9:39:20:c1:61:58:ed:
                    bf:be:a9:f7:a6:81:ce:d3:e5:55:4e:cd:f3:2c:4d:
                    83:c5:f8:bd:ff:6f:6e:0c:e6:8a:6d:3b:66:be:72:
                    17:2e:3c:89:c4:a1:3c:be:06:66:97:4b:a7:dd:99:
                    2c:56:d4:c9:31:7a:f1:25:45:ea:2b:eb:3c:fa:b0:
                    14:4e:7d:8b:86:25:d6:35:f1:71:93:71:8e:4f:ca:
                    a5:23:e6:d5:df:6c:e9:c9:56:c5:41:cb:37:65:d4:
                    49:07:d1:0f:8c:eb:19:d9:cd:7e:cf:e3:97:f7:44:
                    d2:49:40:be:f8:72:c7:32:18:a4:50:66:3e:57:d7:
                    eb:9d:25:f0:85:3f:3a:38:55:e1:d5:33:c6:78:b3:
                    51:fd:a4:0e:a7:79:ac:68:ff:02:54:a4:b8:aa:8d:
                    d8:ae:36:9d:3f:c0:6d:e5:6e:84:cc:19:fb:d7:e6:
                    d7:5b:09:a1:b8:12:03:58:70:ac:6b:ed:e2:ed:ee:
                    33:31:a5:52:db:a1:97:eb:e5:bb:af:33:a0:da:f3:
                    f5:0f:0b:85:8a:9a:27:5b:c4:6a:cf:93:03:2d:91:
                    d0:9c:4a:a7:3b:67:34:68:87:18:99:36:20:a0:13:
                    ac:58:93:da:b3:bc:4d:15:13:61:89:69:71:f3:23:
                    95:c6:38:47:af:b1:c0:b9:8c:6c:b6:eb:c2:10:4e:
                    6c:4e:51:2d:f5:2d:5f:36:82:bf:e7:3a:52:a4:4e:
                    03:c3:19:a3:94:f5:1c:54:95:99:7e:d2:69:7c:12:
                    23:ee:e3:8f:b7:9e:64:e1:74:03
                Exponent: 65537 (0x10001)
        X509v3 extensions:
            X509v3 Key Usage: critical
                Certificate Sign, CRL Sign
            X509v3 Basic Constraints: critical
                CA:TRUE, pathlen:0
            X509v3 Subject Key Identifier: 
                AC:97:F5:54:34:9D:10:C0:D6:91:79:12:C5:43:9E:8F:ED:47:15:82
            X509v3 Authority Key Identifier: 
                keyid:AA:B7:CF:6C:2C:D7:77:46:86:71:D2:6A:21:F5:D8:C7:C7:C7:3D:31

            Authority Information Access: 
                CA Issuers - URI:https://herrenschmidt.pro/ca/root-ca.cer

            X509v3 CRL Distribution Points: 

                Full Name:
                  URI:https://herrenschmidt.pro/ca/root-ca.crl

    Signature Algorithm: sha256WithRSAEncryption
         94:b9:d6:44:2d:79:50:0d:fc:f3:b4:d1:51:07:56:b8:43:5b:
         5e:00:b8:23:26:4f:54:28:fb:8e:41:e9:02:3d:f9:1f:f0:98:
         3c:69:4e:83:b9:e4:b0:8c:0d:0f:e2:a1:0d:82:90:15:9c:9f:
         a8:6e:12:06:61:40:59:59:38:c6:22:9e:9e:72:e7:a2:f6:ed:
         0f:37:c3:28:ff:cc:6c:3f:6d:1c:ce:57:28:90:81:f0:43:92:
         ba:37:6c:5d:8a:84:f9:37:99:5d:bd:d4:25:41:34:8a:e4:34:
         5f:d5:22:80:5d:98:09:54:cd:91:15:37:db:7a:e6:33:5e:96:
         90:c6:8b:57:e4:b4:8b:f0:d6:a8:b2:29:27:81:b5:04:66:fb:
         f1:5c:46:a5:17:13:97:3f:6b:66:fc:03:41:ac:36:de:36:e5:
         4f:84:e0:f0:f5:53:6c:9e:ef:2d:16:e3:e3:2f:70:a0:2d:ec:
         bb:5b:e4:85:8b:ea:81:da:72:f6:55:d5:16:65:c6:1b:15:f6:
         4d:53:0e:70:d7:83:bf:a9:89:ae:35:e1:19:18:d3:92:5d:63:
         40:d6:24:2e:e0:99:70:96:c5:ba:14:49:82:62:e0:29:1b:bf:
         f1:5b:87:62:82:ff:7f:eb:7b:a2:71:26:00:f2:ac:c8:00:df:
         5f:f8:89:12:4c:e3:6f:04:d0:53:e4:8d:fe:67:e7:3b:fe:4d:
         df:7f:9b:f0:83:e4:bb:09:c8:23:6d:a1:c0:e0:3a:95:ec:ba:
         13:26:59:0b:23:60:51:fc:cf:7b:a5:63:63:f5:2a:3c:04:ce:
         a7:21:9b:d7:b6:a7:e4:a3:39:0b:e6:8e:88:c3:8a:3a:91:26:
         dd:09:7e:7a:c6:0a:17:e3:af:45:54:e0:cd:a4:90:5c:30:4e:
         79:b6:1e:b5:44:6a:ed:0d:9b:95:cb:33:99:7e:43:b4:39:b2:
         ac:b8:e0:fc:ad:4f:ef:29:8f:11:3c:5e:8a:e9:dd:04:01:75:
         21:c8:92:20:8b:ad
-----BEGIN CERTIFICATE-----
MIIFODCCA6CgAwIBAgIBCjANBgkqhkiG9w0BAQsFADBqMQswCQYDVQQGEwJGUjET
MBEGA1UECgwKUHJvamV0IFBLSTEpMCcGA1UECwwgUHJvamV0IFBLSSBDZXJ0aWZp
Y2F0ZSBBdXRob3JpdHkxGzAZBgNVBAMMElByb2pldCBQS0kgUm9vdCBDQTAeFw0x
OTAzMDcxMTE5NDlaFw0zMDEyMzEyMzU5NTlaMGoxCzAJBgNVBAYTAkZSMRMwEQYD
VQQKDApQcm9qZXQgUEtJMSkwJwYDVQQLDCBQcm9qZXQgUEtJIENlcnRpZmljYXRl
IEF1dGhvcml0eTEbMBkGA1UEAwwSUHJvamV0IFBLSSBBdXRoIENBMIIBojANBgkq
hkiG9w0BAQEFAAOCAY8AMIIBigKCAYEA0YTODic9pLTJJjPeLfnQfSPLgSdWRIaO
TqMjq0noMay3EoXujDNdZC1jspfg3565waCqOtPTLVR3qEWJSNq8MpzhB6wodUOe
jj02F8O0hC30RNk5IMFhWO2/vqn3poHO0+VVTs3zLE2Dxfi9/29uDOaKbTtmvnIX
LjyJxKE8vgZml0un3ZksVtTJMXrxJUXqK+s8+rAUTn2LhiXWNfFxk3GOT8qlI+bV
32zpyVbFQcs3ZdRJB9EPjOsZ2c1+z+OX90TSSUC++HLHMhikUGY+V9frnSXwhT86
OFXh1TPGeLNR/aQOp3msaP8CVKS4qo3YrjadP8Bt5W6EzBn71+bXWwmhuBIDWHCs
a+3i7e4zMaVS26GX6+W7rzOg2vP1DwuFiponW8Rqz5MDLZHQnEqnO2c0aIcYmTYg
oBOsWJPas7xNFRNhiWlx8yOVxjhHr7HAuYxstuvCEE5sTlEt9S1fNoK/5zpSpE4D
wxmjlPUcVJWZftJpfBIj7uOPt55k4XQDAgMBAAGjgegwgeUwDgYDVR0PAQH/BAQD
AgEGMBIGA1UdEwEB/wQIMAYBAf8CAQAwHQYDVR0OBBYEFKyX9VQ0nRDA1pF5EsVD
no/tRxWCMB8GA1UdIwQYMBaAFKq3z2ws13dGhnHSaiH12MfHxz0xMEQGCCsGAQUF
BwEBBDgwNjA0BggrBgEFBQcwAoYoaHR0cHM6Ly9oZXJyZW5zY2htaWR0LnByby9j
YS9yb290LWNhLmNlcjA5BgNVHR8EMjAwMC6gLKAqhihodHRwczovL2hlcnJlbnNj
aG1pZHQucHJvL2NhL3Jvb3QtY2EuY3JsMA0GCSqGSIb3DQEBCwUAA4IBgQCUudZE
LXlQDfzztNFRB1a4Q1teALgjJk9UKPuOQekCPfkf8Jg8aU6DueSwjA0P4qENgpAV
nJ+obhIGYUBZWTjGIp6ecuei9u0PN8Mo/8xsP20czlcokIHwQ5K6N2xdioT5N5ld
vdQlQTSK5DRf1SKAXZgJVM2RFTfbeuYzXpaQxotX5LSL8NaosikngbUEZvvxXEal
FxOXP2tm/ANBrDbeNuVPhODw9VNsnu8tFuPjL3CgLey7W+SFi+qB2nL2VdUWZcYb
FfZNUw5w14O/qYmuNeEZGNOSXWNA1iQu4JlwlsW6FEmCYuApG7/xW4digv9/63ui
cSYA8qzIAN9f+IkSTONvBNBT5I3+Z+c7/k3ff5vwg+S7CcgjbaHA4DqV7LoTJlkL
I2BR/M97pWNj9So8BM6nIZvXtqfkozkL5o6Iw4o6kSbdCX56xgoX469FVODNpJBc
ME55th61RGrtDZuVyzOZfkO0ObKsuOD8rU/vKY8RPF6K6d0EAXUhyJIgi60=
-----END CERTIFICATE-----
Certificate:
    Data:
        Version: 3 (0x2)
        Serial Number: 7 (0x7)
    Signature Algorithm: sha256WithRSAEncryption
        Issuer: C=FR, O=Projet PKI, OU=Projet PKI Certificate Authority, CN=Projet PKI Root CA
        Validity
            Not Before: Mar  7 10:53:44 2019 GMT
            Not After : Dec 31 23:59:59 2030 GMT
        Subject: C=FR, O=Projet PKI, OU=Projet PKI Certificate Authority, CN=Projet PKI Root CA
        Subject Public Key Info:
            Public Key Algorithm: rsaEncryption
                Public-Key: (3072 bit)
                Modulus:
                    00:ee:ca:fc:4a:a2:a6:4a:96:61:b1:ca:02:5a:59:
                    58:6a:92:93:3c:c3:59:77:ce:71:88:6b:83:b4:8c:
                    b8:6e:b4:db:c0:92:35:a3:e9:ff:8f:ba:77:e6:dd:
                    63:a8:ce:34:4b:8b:c3:5d:0c:d9:27:ee:e3:0d:00:
                    48:bc:5c:b0:f6:ad:92:a8:53:2a:e2:bf:63:9e:f7:
                    83:c4:fd:76:89:0b:0c:17:d7:42:8a:5b:98:03:e7:
                    7b:a0:8b:bd:c2:c7:69:8c:41:4b:14:45:05:38:d6:
                    4e:0d:a5:25:ab:fc:ff:84:33:1c:2a:36:4b:3e:66:
                    22:d1:41:41:ee:65:86:f3:f6:b3:a7:eb:c1:9c:6f:
                    b0:c8:ab:e6:71:a9:79:1d:72:0a:df:22:4e:f7:cc:
                    ef:00:b2:d2:f9:02:6d:24:19:92:f8:f9:53:d1:47:
                    9b:97:2a:72:c4:c2:64:47:c5:b0:3d:8f:7a:62:79:
                    c8:30:bf:89:ad:e6:4f:a4:02:c6:28:58:26:71:09:
                    6d:1c:f9:40:29:d3:ef:b9:f5:8e:1b:9d:7a:69:f0:
                    f0:fc:7a:a1:07:b8:de:16:b2:5a:dd:f7:ca:fb:59:
                    d2:96:6e:99:bc:a5:b2:de:bc:3e:b5:13:29:8c:38:
                    cb:a4:99:80:51:49:90:9a:b0:1b:e3:98:8a:82:0e:
                    1e:ba:2d:b0:27:3c:65:82:ad:9e:c7:30:b4:1d:f2:
                    16:fc:79:14:79:d6:96:ef:36:4f:81:3c:73:e1:e8:
                    d3:d8:39:e7:48:06:ac:56:ef:0d:c2:68:71:93:8b:
                    c1:c7:11:27:6a:d1:a7:a5:4e:f0:de:48:a2:9e:d3:
                    19:4a:8e:82:78:d2:19:e6:56:68:26:50:ef:b9:5e:
                    72:62:76:5e:4f:f8:95:46:2e:59:67:70:7e:31:57:
                    98:52:08:a9:70:3e:1a:95:5e:52:19:40:8e:e2:f6:
                    71:96:d4:5b:20:9f:92:e4:7c:d1:64:3f:11:d1:ed:
                    17:2f:cb:8e:cc:1e:32:ab:05:49
                Exponent: 65537 (0x10001)
        X509v3 extensions:
            X509v3 Key Usage: critical
                Certificate Sign, CRL Sign
            X509v3 Basic Constraints: critical
                CA:TRUE
            X509v3 Subject Key Identifier: 
                AA:B7:CF:6C:2C:D7:77:46:86:71:D2:6A:21:F5:D8:C7:C7:C7:3D:31
            X509v3 Authority Key Identifier: 
                keyid:AA:B7:CF:6C:2C:D7:77:46:86:71:D2:6A:21:F5:D8:C7:C7:C7:3D:31

    Signature Algorithm: sha256WithRSAEncryption
         d6:6e:b3:74:fe:88:13:fa:db:a2:11:a6:b7:6b:f1:cc:97:61:
         86:46:e4:37:50:81:11:94:a4:fa:5b:6f:45:3d:bd:bc:f1:88:
         55:b4:30:c6:e1:01:42:77:68:bd:e6:09:86:0d:54:04:3e:56:
         08:9f:ad:dc:74:7e:c8:a8:84:6f:3d:66:58:86:e4:d3:60:be:
         98:f1:f2:00:75:78:5a:75:88:c0:1d:71:8a:7c:ec:ea:31:bb:
         7e:08:cc:57:f8:5b:da:35:33:ae:67:4e:31:5f:3f:fd:bf:82:
         c5:cd:ad:03:0f:d4:7e:50:21:55:65:be:97:eb:34:2b:c5:aa:
         1b:d5:ee:99:c9:44:16:11:25:74:14:ee:c0:2c:fe:21:26:a6:
         51:56:ec:ed:91:b4:ee:b1:e4:3a:4b:56:86:28:a1:46:7b:30:
         52:af:50:d7:c8:10:2d:1e:8c:dd:96:a2:60:db:e4:30:f6:8f:
         a5:98:83:5b:7f:6b:98:9a:4a:e5:42:7a:dc:8f:db:a2:7b:3f:
         3a:f0:f3:16:06:6d:d3:67:99:b0:00:95:c0:f3:4c:93:9d:f8:
         c6:cf:fa:dd:6d:66:43:21:89:9d:c7:c8:85:d2:17:62:0e:cd:
         a2:ae:10:83:31:c9:ee:12:e1:0d:8a:45:cd:96:a3:61:ee:9d:
         ed:cd:13:0f:9c:10:96:a7:58:05:c4:50:91:64:c3:53:d0:66:
         f1:fa:f5:92:6b:34:28:09:7a:6b:16:17:01:36:2b:ba:42:14:
         be:98:5c:18:50:c4:f5:16:9a:41:f7:d6:ba:c9:63:be:1c:60:
         a1:82:8c:34:4d:93:be:3f:d4:ee:6d:b8:d7:c8:6c:be:aa:d8:
         71:6e:96:9c:2b:5f:75:2f:09:45:90:d4:5b:96:b8:dc:fe:f6:
         a2:ca:32:e5:b1:9b:9f:00:c0:64:96:4e:12:ff:db:af:b4:1b:
         d5:0f:0c:dd:24:33:48:74:b3:55:62:99:f9:2b:a4:c4:5b:b8:
         e9:4f:42:9c:d7:e3
-----BEGIN CERTIFICATE-----
MIIEsjCCAxqgAwIBAgIBBzANBgkqhkiG9w0BAQsFADBqMQswCQYDVQQGEwJGUjET
MBEGA1UECgwKUHJvamV0IFBLSTEpMCcGA1UECwwgUHJvamV0IFBLSSBDZXJ0aWZp
Y2F0ZSBBdXRob3JpdHkxGzAZBgNVBAMMElByb2pldCBQS0kgUm9vdCBDQTAeFw0x
OTAzMDcxMDUzNDRaFw0zMDEyMzEyMzU5NTlaMGoxCzAJBgNVBAYTAkZSMRMwEQYD
VQQKDApQcm9qZXQgUEtJMSkwJwYDVQQLDCBQcm9qZXQgUEtJIENlcnRpZmljYXRl
IEF1dGhvcml0eTEbMBkGA1UEAwwSUHJvamV0IFBLSSBSb290IENBMIIBojANBgkq
hkiG9w0BAQEFAAOCAY8AMIIBigKCAYEA7sr8SqKmSpZhscoCWllYapKTPMNZd85x
iGuDtIy4brTbwJI1o+n/j7p35t1jqM40S4vDXQzZJ+7jDQBIvFyw9q2SqFMq4r9j
nveDxP12iQsMF9dCiluYA+d7oIu9wsdpjEFLFEUFONZODaUlq/z/hDMcKjZLPmYi
0UFB7mWG8/azp+vBnG+wyKvmcal5HXIK3yJO98zvALLS+QJtJBmS+PlT0Ueblypy
xMJkR8WwPY96YnnIML+JreZPpALGKFgmcQltHPlAKdPvufWOG516afDw/HqhB7je
FrJa3ffK+1nSlm6ZvKWy3rw+tRMpjDjLpJmAUUmQmrAb45iKgg4eui2wJzxlgq2e
xzC0HfIW/HkUedaW7zZPgTxz4ejT2DnnSAasVu8Nwmhxk4vBxxEnatGnpU7w3kii
ntMZSo6CeNIZ5lZoJlDvuV5yYnZeT/iVRi5ZZ3B+MVeYUgipcD4alV5SGUCO4vZx
ltRbIJ+S5HzRZD8R0e0XL8uOzB4yqwVJAgMBAAGjYzBhMA4GA1UdDwEB/wQEAwIB
BjAPBgNVHRMBAf8EBTADAQH/MB0GA1UdDgQWBBSqt89sLNd3RoZx0moh9djHx8c9
MTAfBgNVHSMEGDAWgBSqt89sLNd3RoZx0moh9djHx8c9MTANBgkqhkiG9w0BAQsF
AAOCAYEA1m6zdP6IE/rbohGmt2vxzJdhhkbkN1CBEZSk+ltvRT29vPGIVbQwxuEB
QndoveYJhg1UBD5WCJ+t3HR+yKiEbz1mWIbk02C+mPHyAHV4WnWIwB1xinzs6jG7
fgjMV/hb2jUzrmdOMV8//b+Cxc2tAw/UflAhVWW+l+s0K8WqG9XumclEFhEldBTu
wCz+ISamUVbs7ZG07rHkOktWhiihRnswUq9Q18gQLR6M3ZaiYNvkMPaPpZiDW39r
mJpK5UJ63I/bons/OvDzFgZt02eZsACVwPNMk534xs/63W1mQyGJncfIhdIXYg7N
oq4QgzHJ7hLhDYpFzZajYe6d7c0TD5wQlqdYBcRQkWTDU9Bm8fr1kms0KAl6axYX
ATYrukIUvphcGFDE9RaaQffWusljvhxgoYKMNE2Tvj/U7m2418hsvqrYcW6WnCtf
dS8JRZDUW5a43P72osoy5bGbnwDAZJZOEv/br7Qb1Q8M3SQzSHSzVWKZ+SukxFu4
6U9CnNfj
-----END CERTIFICATE-----
