Certificate:
    Data:
        Version: 3 (0x2)
        Serial Number: 11 (0xb)
    Signature Algorithm: sha256WithRSAEncryption
        Issuer: C=FR, O=Projet PKI, OU=Projet PKI Certificate Authority, CN=Projet PKI Root CA
        Validity
            Not Before: Mar  7 11:31:18 2019 GMT
            Not After : Dec 31 23:59:59 2030 GMT
        Subject: C=FR, O=Projet PKI, OU=Projet PKI Certificate Authority, CN=Projet PKI Encrypt CA
        Subject Public Key Info:
            Public Key Algorithm: rsaEncryption
                Public-Key: (3072 bit)
                Modulus:
                    00:a8:90:49:97:12:d8:42:4b:21:8e:5a:ef:47:96:
                    07:03:68:f0:87:5b:17:6a:46:03:d9:10:fe:17:15:
                    2d:4e:8a:5a:23:15:32:76:76:32:8a:6f:5b:65:e9:
                    47:9b:2c:b2:12:87:07:cd:45:00:a6:23:de:50:f7:
                    9b:d3:8b:18:91:42:17:6b:1f:2f:ef:c2:ae:d4:40:
                    ba:52:11:b9:29:65:43:08:11:73:88:76:32:02:0d:
                    21:b3:bd:14:f8:68:dd:26:39:06:f3:1e:4b:f6:ba:
                    21:b0:34:9e:af:d7:66:1c:7b:4a:28:dd:d1:be:4b:
                    33:4c:06:03:b0:d6:b8:60:91:00:0f:c6:94:e6:c0:
                    d4:d9:0b:55:41:1a:92:90:81:90:44:75:74:d1:94:
                    30:f6:d1:62:c9:e7:c3:f4:3b:89:d4:8b:ce:ba:89:
                    c5:ae:46:ef:11:c8:4a:95:a4:ab:06:36:92:21:bc:
                    3e:33:24:ab:1a:9e:59:0d:bd:ab:61:a2:00:33:8f:
                    3b:26:6c:3b:cb:be:7e:58:ae:fb:f9:47:03:4c:c6:
                    ac:9a:9a:db:41:a9:f1:45:5a:55:44:2f:7d:58:00:
                    a0:98:a6:51:b2:7f:80:8f:18:0a:b1:25:56:f9:12:
                    b2:5d:59:ee:99:85:4b:f9:6c:b3:24:f5:1c:3e:eb:
                    6a:79:27:fe:d6:d5:f6:47:20:27:29:08:fe:c4:5b:
                    bb:c4:93:2c:39:ec:ba:92:7f:a1:fb:8b:7b:46:67:
                    7d:08:0d:d4:b9:28:36:68:0e:22:58:25:f3:28:8d:
                    c5:69:7d:d3:c9:21:e0:8c:6c:14:5d:73:01:cb:fb:
                    8b:15:63:ba:ed:e3:ec:19:86:49:d0:a4:d7:5d:83:
                    c5:ea:2b:66:d4:ac:c2:dc:4f:04:90:00:2e:c4:3a:
                    c4:bd:0e:05:66:fb:b2:7e:b2:5a:d3:b4:92:e3:2e:
                    4b:9c:ff:96:db:77:1a:e9:eb:48:29:cb:f8:e9:57:
                    f6:5c:7c:05:b2:98:f1:30:ae:cf
                Exponent: 65537 (0x10001)
        X509v3 extensions:
            X509v3 Key Usage: critical
                Certificate Sign, CRL Sign
            X509v3 Basic Constraints: critical
                CA:TRUE, pathlen:0
            X509v3 Subject Key Identifier: 
                17:7A:94:32:DE:D1:83:59:6E:B2:51:40:E5:5B:CF:A3:28:14:30:AA
            X509v3 Authority Key Identifier: 
                keyid:AA:B7:CF:6C:2C:D7:77:46:86:71:D2:6A:21:F5:D8:C7:C7:C7:3D:31

            Authority Information Access: 
                CA Issuers - URI:https://herrenschmidt.pro/ca/root-ca.cer

            X509v3 CRL Distribution Points: 

                Full Name:
                  URI:https://herrenschmidt.pro/ca/root-ca.crl

    Signature Algorithm: sha256WithRSAEncryption
         28:46:77:3d:94:6c:6f:87:88:4d:ec:20:32:4d:e3:86:f4:91:
         f6:78:70:f3:2c:12:0c:05:9c:6f:7d:8d:f7:c6:44:9f:18:67:
         11:45:9e:b2:44:9d:1f:a5:e1:55:c4:51:3d:fa:cb:6e:c7:1a:
         96:e7:2a:b7:6c:11:7c:ca:e1:f8:5a:11:ab:8b:2e:b3:89:89:
         37:e3:f9:23:f5:9b:92:e0:67:ba:71:ab:b0:a4:66:a5:0f:dd:
         b2:cb:84:3b:74:35:80:61:7a:da:c8:96:fe:e8:f1:c2:4a:43:
         7d:8c:aa:76:82:96:19:c8:af:1c:e8:aa:7e:bf:59:be:c3:a6:
         f2:c1:d5:3a:43:72:b2:3c:3d:da:e0:27:00:15:2a:67:e1:bb:
         7f:1d:e4:84:a7:b6:3f:13:35:39:eb:2e:d5:c5:af:d7:6c:4d:
         2f:22:56:a0:07:a1:e9:fe:57:a9:a2:48:08:fc:9b:d5:2a:4f:
         28:df:98:c0:87:1c:e0:a2:8e:ac:eb:8a:1f:0f:6b:8f:34:5c:
         15:2c:fe:1c:a9:67:3b:48:b5:45:55:29:30:78:5a:b2:d2:19:
         b8:89:f3:d4:f3:af:bf:dc:42:9b:95:53:ad:ff:74:36:fb:f3:
         84:1a:92:23:dd:3a:54:da:b1:b1:67:ff:c8:2f:3d:67:a9:c4:
         39:f8:41:a6:b2:0c:89:23:ee:88:20:a1:27:10:ad:73:cb:26:
         ff:ad:26:80:e0:49:e7:59:9c:9e:7a:5c:e9:b4:25:fb:01:0f:
         a8:d4:c7:98:f7:95:22:01:34:aa:96:ec:ad:c8:18:e1:99:76:
         44:28:e5:41:b2:bc:9b:75:b1:18:3b:31:8e:59:12:8d:23:4f:
         30:b2:59:ee:5f:a5:cc:fc:65:14:ee:79:85:9f:36:a4:bf:d7:
         33:ce:ca:87:09:6d:29:5b:d7:07:9b:37:a5:57:67:b7:98:fb:
         f4:eb:3d:fa:de:12:03:d3:61:18:be:d6:29:5e:68:36:b3:c2:
         ca:a4:f1:87:7b:83
-----BEGIN CERTIFICATE-----
MIIFOzCCA6OgAwIBAgIBCzANBgkqhkiG9w0BAQsFADBqMQswCQYDVQQGEwJGUjET
MBEGA1UECgwKUHJvamV0IFBLSTEpMCcGA1UECwwgUHJvamV0IFBLSSBDZXJ0aWZp
Y2F0ZSBBdXRob3JpdHkxGzAZBgNVBAMMElByb2pldCBQS0kgUm9vdCBDQTAeFw0x
OTAzMDcxMTMxMThaFw0zMDEyMzEyMzU5NTlaMG0xCzAJBgNVBAYTAkZSMRMwEQYD
VQQKDApQcm9qZXQgUEtJMSkwJwYDVQQLDCBQcm9qZXQgUEtJIENlcnRpZmljYXRl
IEF1dGhvcml0eTEeMBwGA1UEAwwVUHJvamV0IFBLSSBFbmNyeXB0IENBMIIBojAN
BgkqhkiG9w0BAQEFAAOCAY8AMIIBigKCAYEAqJBJlxLYQkshjlrvR5YHA2jwh1sX
akYD2RD+FxUtTopaIxUydnYyim9bZelHmyyyEocHzUUApiPeUPeb04sYkUIXax8v
78Ku1EC6UhG5KWVDCBFziHYyAg0hs70U+GjdJjkG8x5L9rohsDSer9dmHHtKKN3R
vkszTAYDsNa4YJEAD8aU5sDU2QtVQRqSkIGQRHV00ZQw9tFiyefD9DuJ1IvOuonF
rkbvEchKlaSrBjaSIbw+MySrGp5ZDb2rYaIAM487Jmw7y75+WK77+UcDTMasmprb
QanxRVpVRC99WACgmKZRsn+AjxgKsSVW+RKyXVnumYVL+WyzJPUcPutqeSf+1tX2
RyAnKQj+xFu7xJMsOey6kn+h+4t7Rmd9CA3UuSg2aA4iWCXzKI3FaX3TySHgjGwU
XXMBy/uLFWO67ePsGYZJ0KTXXYPF6itm1KzC3E8EkAAuxDrEvQ4FZvuyfrJa07SS
4y5LnP+W23ca6etIKcv46Vf2XHwFspjxMK7PAgMBAAGjgegwgeUwDgYDVR0PAQH/
BAQDAgEGMBIGA1UdEwEB/wQIMAYBAf8CAQAwHQYDVR0OBBYEFBd6lDLe0YNZbrJR
QOVbz6MoFDCqMB8GA1UdIwQYMBaAFKq3z2ws13dGhnHSaiH12MfHxz0xMEQGCCsG
AQUFBwEBBDgwNjA0BggrBgEFBQcwAoYoaHR0cHM6Ly9oZXJyZW5zY2htaWR0LnBy
by9jYS9yb290LWNhLmNlcjA5BgNVHR8EMjAwMC6gLKAqhihodHRwczovL2hlcnJl
bnNjaG1pZHQucHJvL2NhL3Jvb3QtY2EuY3JsMA0GCSqGSIb3DQEBCwUAA4IBgQAo
Rnc9lGxvh4hN7CAyTeOG9JH2eHDzLBIMBZxvfY33xkSfGGcRRZ6yRJ0fpeFVxFE9
+stuxxqW5yq3bBF8yuH4WhGriy6ziYk34/kj9ZuS4Ge6cauwpGalD92yy4Q7dDWA
YXrayJb+6PHCSkN9jKp2gpYZyK8c6Kp+v1m+w6bywdU6Q3KyPD3a4CcAFSpn4bt/
HeSEp7Y/EzU56y7Vxa/XbE0vIlagB6Hp/lepokgI/JvVKk8o35jAhxzgoo6s64of
D2uPNFwVLP4cqWc7SLVFVSkweFqy0hm4ifPU86+/3EKblVOt/3Q2+/OEGpIj3TpU
2rGxZ//ILz1nqcQ5+EGmsgyJI+6IIKEnEK1zyyb/rSaA4EnnWZyeelzptCX7AQ+o
1MeY95UiATSqluytyBjhmXZEKOVBsrybdbEYOzGOWRKNI08wslnuX6XM/GUU7nmF
nzakv9czzsqHCW0pW9cHmzelV2e3mPv06z363hID02EYvtYpXmg2s8LKpPGHe4M=
-----END CERTIFICATE-----
Certificate:
    Data:
        Version: 3 (0x2)
        Serial Number: 7 (0x7)
    Signature Algorithm: sha256WithRSAEncryption
        Issuer: C=FR, O=Projet PKI, OU=Projet PKI Certificate Authority, CN=Projet PKI Root CA
        Validity
            Not Before: Mar  7 10:53:44 2019 GMT
            Not After : Dec 31 23:59:59 2030 GMT
        Subject: C=FR, O=Projet PKI, OU=Projet PKI Certificate Authority, CN=Projet PKI Root CA
        Subject Public Key Info:
            Public Key Algorithm: rsaEncryption
                Public-Key: (3072 bit)
                Modulus:
                    00:ee:ca:fc:4a:a2:a6:4a:96:61:b1:ca:02:5a:59:
                    58:6a:92:93:3c:c3:59:77:ce:71:88:6b:83:b4:8c:
                    b8:6e:b4:db:c0:92:35:a3:e9:ff:8f:ba:77:e6:dd:
                    63:a8:ce:34:4b:8b:c3:5d:0c:d9:27:ee:e3:0d:00:
                    48:bc:5c:b0:f6:ad:92:a8:53:2a:e2:bf:63:9e:f7:
                    83:c4:fd:76:89:0b:0c:17:d7:42:8a:5b:98:03:e7:
                    7b:a0:8b:bd:c2:c7:69:8c:41:4b:14:45:05:38:d6:
                    4e:0d:a5:25:ab:fc:ff:84:33:1c:2a:36:4b:3e:66:
                    22:d1:41:41:ee:65:86:f3:f6:b3:a7:eb:c1:9c:6f:
                    b0:c8:ab:e6:71:a9:79:1d:72:0a:df:22:4e:f7:cc:
                    ef:00:b2:d2:f9:02:6d:24:19:92:f8:f9:53:d1:47:
                    9b:97:2a:72:c4:c2:64:47:c5:b0:3d:8f:7a:62:79:
                    c8:30:bf:89:ad:e6:4f:a4:02:c6:28:58:26:71:09:
                    6d:1c:f9:40:29:d3:ef:b9:f5:8e:1b:9d:7a:69:f0:
                    f0:fc:7a:a1:07:b8:de:16:b2:5a:dd:f7:ca:fb:59:
                    d2:96:6e:99:bc:a5:b2:de:bc:3e:b5:13:29:8c:38:
                    cb:a4:99:80:51:49:90:9a:b0:1b:e3:98:8a:82:0e:
                    1e:ba:2d:b0:27:3c:65:82:ad:9e:c7:30:b4:1d:f2:
                    16:fc:79:14:79:d6:96:ef:36:4f:81:3c:73:e1:e8:
                    d3:d8:39:e7:48:06:ac:56:ef:0d:c2:68:71:93:8b:
                    c1:c7:11:27:6a:d1:a7:a5:4e:f0:de:48:a2:9e:d3:
                    19:4a:8e:82:78:d2:19:e6:56:68:26:50:ef:b9:5e:
                    72:62:76:5e:4f:f8:95:46:2e:59:67:70:7e:31:57:
                    98:52:08:a9:70:3e:1a:95:5e:52:19:40:8e:e2:f6:
                    71:96:d4:5b:20:9f:92:e4:7c:d1:64:3f:11:d1:ed:
                    17:2f:cb:8e:cc:1e:32:ab:05:49
                Exponent: 65537 (0x10001)
        X509v3 extensions:
            X509v3 Key Usage: critical
                Certificate Sign, CRL Sign
            X509v3 Basic Constraints: critical
                CA:TRUE
            X509v3 Subject Key Identifier: 
                AA:B7:CF:6C:2C:D7:77:46:86:71:D2:6A:21:F5:D8:C7:C7:C7:3D:31
            X509v3 Authority Key Identifier: 
                keyid:AA:B7:CF:6C:2C:D7:77:46:86:71:D2:6A:21:F5:D8:C7:C7:C7:3D:31

    Signature Algorithm: sha256WithRSAEncryption
         d6:6e:b3:74:fe:88:13:fa:db:a2:11:a6:b7:6b:f1:cc:97:61:
         86:46:e4:37:50:81:11:94:a4:fa:5b:6f:45:3d:bd:bc:f1:88:
         55:b4:30:c6:e1:01:42:77:68:bd:e6:09:86:0d:54:04:3e:56:
         08:9f:ad:dc:74:7e:c8:a8:84:6f:3d:66:58:86:e4:d3:60:be:
         98:f1:f2:00:75:78:5a:75:88:c0:1d:71:8a:7c:ec:ea:31:bb:
         7e:08:cc:57:f8:5b:da:35:33:ae:67:4e:31:5f:3f:fd:bf:82:
         c5:cd:ad:03:0f:d4:7e:50:21:55:65:be:97:eb:34:2b:c5:aa:
         1b:d5:ee:99:c9:44:16:11:25:74:14:ee:c0:2c:fe:21:26:a6:
         51:56:ec:ed:91:b4:ee:b1:e4:3a:4b:56:86:28:a1:46:7b:30:
         52:af:50:d7:c8:10:2d:1e:8c:dd:96:a2:60:db:e4:30:f6:8f:
         a5:98:83:5b:7f:6b:98:9a:4a:e5:42:7a:dc:8f:db:a2:7b:3f:
         3a:f0:f3:16:06:6d:d3:67:99:b0:00:95:c0:f3:4c:93:9d:f8:
         c6:cf:fa:dd:6d:66:43:21:89:9d:c7:c8:85:d2:17:62:0e:cd:
         a2:ae:10:83:31:c9:ee:12:e1:0d:8a:45:cd:96:a3:61:ee:9d:
         ed:cd:13:0f:9c:10:96:a7:58:05:c4:50:91:64:c3:53:d0:66:
         f1:fa:f5:92:6b:34:28:09:7a:6b:16:17:01:36:2b:ba:42:14:
         be:98:5c:18:50:c4:f5:16:9a:41:f7:d6:ba:c9:63:be:1c:60:
         a1:82:8c:34:4d:93:be:3f:d4:ee:6d:b8:d7:c8:6c:be:aa:d8:
         71:6e:96:9c:2b:5f:75:2f:09:45:90:d4:5b:96:b8:dc:fe:f6:
         a2:ca:32:e5:b1:9b:9f:00:c0:64:96:4e:12:ff:db:af:b4:1b:
         d5:0f:0c:dd:24:33:48:74:b3:55:62:99:f9:2b:a4:c4:5b:b8:
         e9:4f:42:9c:d7:e3
-----BEGIN CERTIFICATE-----
MIIEsjCCAxqgAwIBAgIBBzANBgkqhkiG9w0BAQsFADBqMQswCQYDVQQGEwJGUjET
MBEGA1UECgwKUHJvamV0IFBLSTEpMCcGA1UECwwgUHJvamV0IFBLSSBDZXJ0aWZp
Y2F0ZSBBdXRob3JpdHkxGzAZBgNVBAMMElByb2pldCBQS0kgUm9vdCBDQTAeFw0x
OTAzMDcxMDUzNDRaFw0zMDEyMzEyMzU5NTlaMGoxCzAJBgNVBAYTAkZSMRMwEQYD
VQQKDApQcm9qZXQgUEtJMSkwJwYDVQQLDCBQcm9qZXQgUEtJIENlcnRpZmljYXRl
IEF1dGhvcml0eTEbMBkGA1UEAwwSUHJvamV0IFBLSSBSb290IENBMIIBojANBgkq
hkiG9w0BAQEFAAOCAY8AMIIBigKCAYEA7sr8SqKmSpZhscoCWllYapKTPMNZd85x
iGuDtIy4brTbwJI1o+n/j7p35t1jqM40S4vDXQzZJ+7jDQBIvFyw9q2SqFMq4r9j
nveDxP12iQsMF9dCiluYA+d7oIu9wsdpjEFLFEUFONZODaUlq/z/hDMcKjZLPmYi
0UFB7mWG8/azp+vBnG+wyKvmcal5HXIK3yJO98zvALLS+QJtJBmS+PlT0Ueblypy
xMJkR8WwPY96YnnIML+JreZPpALGKFgmcQltHPlAKdPvufWOG516afDw/HqhB7je
FrJa3ffK+1nSlm6ZvKWy3rw+tRMpjDjLpJmAUUmQmrAb45iKgg4eui2wJzxlgq2e
xzC0HfIW/HkUedaW7zZPgTxz4ejT2DnnSAasVu8Nwmhxk4vBxxEnatGnpU7w3kii
ntMZSo6CeNIZ5lZoJlDvuV5yYnZeT/iVRi5ZZ3B+MVeYUgipcD4alV5SGUCO4vZx
ltRbIJ+S5HzRZD8R0e0XL8uOzB4yqwVJAgMBAAGjYzBhMA4GA1UdDwEB/wQEAwIB
BjAPBgNVHRMBAf8EBTADAQH/MB0GA1UdDgQWBBSqt89sLNd3RoZx0moh9djHx8c9
MTAfBgNVHSMEGDAWgBSqt89sLNd3RoZx0moh9djHx8c9MTANBgkqhkiG9w0BAQsF
AAOCAYEA1m6zdP6IE/rbohGmt2vxzJdhhkbkN1CBEZSk+ltvRT29vPGIVbQwxuEB
QndoveYJhg1UBD5WCJ+t3HR+yKiEbz1mWIbk02C+mPHyAHV4WnWIwB1xinzs6jG7
fgjMV/hb2jUzrmdOMV8//b+Cxc2tAw/UflAhVWW+l+s0K8WqG9XumclEFhEldBTu
wCz+ISamUVbs7ZG07rHkOktWhiihRnswUq9Q18gQLR6M3ZaiYNvkMPaPpZiDW39r
mJpK5UJ63I/bons/OvDzFgZt02eZsACVwPNMk534xs/63W1mQyGJncfIhdIXYg7N
oq4QgzHJ7hLhDYpFzZajYe6d7c0TD5wQlqdYBcRQkWTDU9Bm8fr1kms0KAl6axYX
ATYrukIUvphcGFDE9RaaQffWusljvhxgoYKMNE2Tvj/U7m2418hsvqrYcW6WnCtf
dS8JRZDUW5a43P72osoy5bGbnwDAZJZOEv/br7Qb1Q8M3SQzSHSzVWKZ+SukxFu4
6U9CnNfj
-----END CERTIFICATE-----
