Certificate:
    Data:
        Version: 3 (0x2)
        Serial Number: 1 (0x1)
    Signature Algorithm: sha256WithRSAEncryption
        Issuer: C=FR, O=Projet PKI, OU=Projet PKI Certificate Authority, CN=Projet PKI Auth CA
        Validity
            Not Before: Mar  8 08:47:36 2019 GMT
            Not After : Mar  7 08:47:36 2021 GMT
        Subject: C=FR, ST=Var, L=Toulon, O=Projet PKI, OU=Test pki, CN=Test pki
        Subject Public Key Info:
            Public Key Algorithm: rsaEncryption
                Public-Key: (3072 bit)
                Modulus:
                    00:c9:e1:c6:05:7b:84:2a:bc:33:74:0f:8a:c9:a8:
                    ed:56:87:c5:06:fd:7e:6e:06:5f:d1:5f:d8:19:04:
                    63:13:b4:08:f4:22:8d:9a:d3:0e:ca:05:4e:ba:a1:
                    08:52:e4:65:5f:97:1b:87:82:c4:c6:1c:be:70:d0:
                    20:ab:88:7c:c5:9f:ae:e7:17:55:f1:5c:03:b7:91:
                    29:7b:f3:a4:09:f3:70:11:a6:cd:59:65:5b:af:35:
                    1a:bf:73:9a:3c:ea:32:4f:5f:2d:2e:c8:68:44:08:
                    a9:d0:6f:b4:25:03:1b:4f:2d:35:15:c2:1d:34:5c:
                    5c:a0:3f:88:70:51:1c:50:69:be:2e:1b:53:e3:51:
                    8b:b5:70:f7:65:1e:32:46:9f:e9:e9:c5:59:de:e5:
                    19:12:19:d5:9c:8e:48:3b:e4:ff:6d:31:26:c2:bc:
                    b8:ed:b6:50:1a:56:7c:4d:b8:f2:9a:1d:dd:bc:40:
                    6e:dc:cc:0f:e9:57:48:50:fb:c1:95:8d:7d:9f:dd:
                    17:5a:0f:5d:07:bf:1b:31:74:18:b5:8d:e5:12:eb:
                    05:47:9e:e2:b5:d2:6c:ab:06:dd:b3:d0:14:3e:e4:
                    f7:c6:14:ff:92:ac:ef:ed:54:3a:14:b8:47:66:b9:
                    03:96:bf:06:44:cd:96:86:59:57:ec:64:55:5a:31:
                    e8:16:a1:db:ba:7b:17:e2:8c:3a:23:1a:68:5d:14:
                    da:c9:f9:42:07:d6:03:42:f7:22:d6:c6:73:24:1c:
                    ea:f5:fe:be:e2:91:55:ad:68:1c:0d:ad:aa:30:83:
                    6f:7c:6d:9c:8f:47:7f:15:5b:85:e1:45:49:bc:c6:
                    35:73:21:7d:16:5b:2d:98:51:fd:16:e3:4c:e1:29:
                    95:17:29:fd:1a:cd:1c:db:64:33:d2:16:65:72:4a:
                    7a:ed:9e:38:fe:38:82:81:aa:53:fb:6a:6c:29:40:
                    c1:99:a5:6d:21:72:c2:c2:1b:21:2a:0e:2d:c6:31:
                    f5:de:04:27:19:5b:f8:78:9d:6d
                Exponent: 65537 (0x10001)
        X509v3 extensions:
            X509v3 Key Usage: critical
                Digital Signature, Key Encipherment
            X509v3 Basic Constraints: 
                CA:FALSE
            X509v3 Extended Key Usage: 
                TLS Web Server Authentication, TLS Web Client Authentication
            X509v3 Subject Key Identifier: 
                48:5E:6B:AE:F2:2F:11:B0:4A:E1:B8:3C:25:78:19:E0:D8:95:57:49
            X509v3 Authority Key Identifier: 
                keyid:BE:B1:3D:58:AD:A3:FF:8B:B8:1B:73:ED:8D:22:88:9D:30:C2:AF:13

            Authority Information Access: 
                CA Issuers - URI:https://herrenschmidt.pro/ca/auth-ca.cer

            X509v3 CRL Distribution Points: 

                Full Name:
                  URI:https://herrenschmidt.pro/ca/auth-ca.crl

            X509v3 Subject Alternative Name: 
                DNS:yourdomain.tld
    Signature Algorithm: sha256WithRSAEncryption
         62:87:f9:22:f0:cb:30:c2:9f:86:07:ab:ef:ff:5f:a9:9b:81:
         48:01:75:f2:2f:7b:6f:6f:de:fd:85:37:73:d5:c9:95:05:7c:
         2a:27:0b:56:c7:0d:fc:f6:a5:96:ae:f5:51:9d:9e:d7:9d:5e:
         01:81:0c:79:95:6c:74:61:05:92:9e:bb:e4:5a:91:f6:b7:a6:
         f7:56:3b:c7:81:38:4b:de:4e:2d:63:b0:04:9c:a2:7e:b7:b0:
         a4:84:7b:68:a9:a0:11:c5:9a:49:ec:91:b3:32:12:49:e6:45:
         7c:73:f9:4b:c3:4a:42:10:f7:20:b6:fc:6b:02:2b:2a:53:0e:
         2b:21:85:2e:70:99:03:5c:a2:93:6a:48:dc:36:65:2f:bf:f2:
         b9:b6:db:27:a6:30:cb:dc:eb:48:27:fb:2e:75:09:1a:c4:bb:
         d3:03:29:36:0c:74:a5:40:9c:65:d4:d1:5e:eb:34:d0:5d:67:
         35:3b:89:f9:39:b3:fd:63:be:69:0f:9f:ec:c2:96:e2:7d:4b:
         d9:d5:22:9a:fc:ef:ee:87:ba:7e:a1:b6:14:d1:0b:8b:3f:98:
         29:da:ca:c9:13:61:0d:8d:d6:81:6d:83:bf:53:b8:45:a3:ae:
         f5:4c:7c:bb:69:0e:1c:ce:d5:c0:a4:ab:46:aa:ab:fa:5c:ae:
         21:8b:c2:8d:95:de:23:76:64:9f:74:99:da:55:2b:12:a7:56:
         00:ba:69:8d:95:1f:79:29:b3:f9:30:f5:06:25:bf:2f:18:27:
         1e:16:31:46:4c:b4:ec:06:7d:1b:5d:2b:31:33:86:24:d5:6c:
         97:26:97:f6:6e:06:d6:b7:43:b8:21:9c:74:c2:41:4d:26:a7:
         74:70:75:23:bd:e5:c9:6e:35:1f:0f:e1:c6:da:d7:d6:14:03:
         8b:d0:98:a1:77:24:9f:46:dd:71:95:8b:79:f6:c9:93:3a:51:
         54:ee:d2:3b:ff:b0:82:47:10:2b:fb:a3:46:8c:4b:c1:bb:81:
         60:82:e9:61:19:a3
-----BEGIN CERTIFICATE-----
MIIFaDCCA9CgAwIBAgIBATANBgkqhkiG9w0BAQsFADBqMQswCQYDVQQGEwJGUjET
MBEGA1UECgwKUHJvamV0IFBLSTEpMCcGA1UECwwgUHJvamV0IFBLSSBDZXJ0aWZp
Y2F0ZSBBdXRob3JpdHkxGzAZBgNVBAMMElByb2pldCBQS0kgQXV0aCBDQTAeFw0x
OTAzMDgwODQ3MzZaFw0yMTAzMDcwODQ3MzZaMGcxCzAJBgNVBAYTAkZSMQwwCgYD
VQQIDANWYXIxDzANBgNVBAcMBlRvdWxvbjETMBEGA1UECgwKUHJvamV0IFBLSTER
MA8GA1UECwwIVGVzdCBwa2kxETAPBgNVBAMMCFRlc3QgcGtpMIIBojANBgkqhkiG
9w0BAQEFAAOCAY8AMIIBigKCAYEAyeHGBXuEKrwzdA+KyajtVofFBv1+bgZf0V/Y
GQRjE7QI9CKNmtMOygVOuqEIUuRlX5cbh4LExhy+cNAgq4h8xZ+u5xdV8VwDt5Ep
e/OkCfNwEabNWWVbrzUav3OaPOoyT18tLshoRAip0G+0JQMbTy01FcIdNFxcoD+I
cFEcUGm+LhtT41GLtXD3ZR4yRp/p6cVZ3uUZEhnVnI5IO+T/bTEmwry47bZQGlZ8
Tbjymh3dvEBu3MwP6VdIUPvBlY19n90XWg9dB78bMXQYtY3lEusFR57itdJsqwbd
s9AUPuT3xhT/kqzv7VQ6FLhHZrkDlr8GRM2WhllX7GRVWjHoFqHbunsX4ow6Ixpo
XRTayflCB9YDQvci1sZzJBzq9f6+4pFVrWgcDa2qMINvfG2cj0d/FVuF4UVJvMY1
cyF9FlstmFH9FuNM4SmVFyn9Gs0c22Qz0hZlckp67Z44/jiCgapT+2psKUDBmaVt
IXLCwhshKg4txjH13gQnGVv4eJ1tAgMBAAGjggEaMIIBFjAOBgNVHQ8BAf8EBAMC
BaAwCQYDVR0TBAIwADAdBgNVHSUEFjAUBggrBgEFBQcDAQYIKwYBBQUHAwIwHQYD
VR0OBBYEFEhea67yLxGwSuG4PCV4GeDYlVdJMB8GA1UdIwQYMBaAFL6xPVito/+L
uBtz7Y0iiJ0wwq8TMEQGCCsGAQUFBwEBBDgwNjA0BggrBgEFBQcwAoYoaHR0cHM6
Ly9oZXJyZW5zY2htaWR0LnByby9jYS9hdXRoLWNhLmNlcjA5BgNVHR8EMjAwMC6g
LKAqhihodHRwczovL2hlcnJlbnNjaG1pZHQucHJvL2NhL2F1dGgtY2EuY3JsMBkG
A1UdEQQSMBCCDnlvdXJkb21haW4udGxkMA0GCSqGSIb3DQEBCwUAA4IBgQBih/ki
8Mswwp+GB6vv/1+pm4FIAXXyL3tvb979hTdz1cmVBXwqJwtWxw389qWWrvVRnZ7X
nV4BgQx5lWx0YQWSnrvkWpH2t6b3VjvHgThL3k4tY7AEnKJ+t7CkhHtoqaARxZpJ
7JGzMhJJ5kV8c/lLw0pCEPcgtvxrAisqUw4rIYUucJkDXKKTakjcNmUvv/K5ttsn
pjDL3OtIJ/sudQkaxLvTAyk2DHSlQJxl1NFe6zTQXWc1O4n5ObP9Y75pD5/swpbi
fUvZ1SKa/O/uh7p+obYU0QuLP5gp2srJE2ENjdaBbYO/U7hFo671THy7aQ4cztXA
pKtGqqv6XK4hi8KNld4jdmSfdJnaVSsSp1YAummNlR95KbP5MPUGJb8vGCceFjFG
TLTsBn0bXSsxM4Yk1WyXJpf2bgbWt0O4IZx0wkFNJqd0cHUjveXJbjUfD+HG2tfW
FAOL0JihdySfRt1xlYt59smTOlFU7tI7/7CCRxAr+6NGjEvBu4FggulhGaM=
-----END CERTIFICATE-----
