Certificate:
    Data:
        Version: 3 (0x2)
        Serial Number: 2 (0x2)
    Signature Algorithm: sha256WithRSAEncryption
        Issuer: C=FR, O=Projet PKI, OU=Projet PKI Certificate Authority, CN=Projet PKI Auth CA
        Validity
            Not Before: Mar  8 08:51:05 2019 GMT
            Not After : Mar  7 08:51:05 2021 GMT
        Subject: C=FR, ST=Var, L=Toulon, O=Projet PKI, OU=Test Server Cert, CN=Test Server Cert
        Subject Public Key Info:
            Public Key Algorithm: rsaEncryption
                Public-Key: (3072 bit)
                Modulus:
                    00:d6:cd:56:c3:50:a3:fb:6b:0c:09:b9:d5:d2:bd:
                    4a:27:21:98:49:19:7c:77:06:0e:a1:4a:10:d5:2a:
                    9e:32:5c:b8:8e:4c:f0:10:ff:50:92:90:31:e9:b1:
                    f6:24:a9:1e:d3:eb:42:29:e9:09:c2:ca:f5:23:58:
                    72:66:f9:ec:75:f9:1e:87:30:28:29:50:c9:24:e4:
                    cd:f2:d6:0c:63:d5:5d:c6:56:28:fc:af:f4:61:1f:
                    92:ba:b4:48:e0:cf:33:50:2b:dd:c0:01:94:f0:74:
                    23:52:06:fa:46:40:5b:3c:df:73:cb:80:e8:dc:b7:
                    ce:2e:b7:c4:ad:03:b3:8c:6d:28:3f:50:8d:12:0c:
                    28:e3:37:85:a1:67:c8:a9:34:4d:b3:d4:c8:af:3c:
                    59:58:28:04:1b:d2:a5:a5:69:d1:e1:95:70:6b:1f:
                    58:c5:26:0a:4d:05:d9:e0:5f:f8:ac:e3:e2:f0:53:
                    f9:47:f6:fb:50:07:0c:13:48:ad:fa:9e:20:d3:05:
                    f8:26:f9:4f:90:84:5c:eb:72:3a:11:43:f4:b6:78:
                    f3:86:ab:21:88:b6:75:40:8c:23:bd:30:e5:60:2d:
                    c2:b8:db:93:13:31:db:e0:d9:02:a2:81:b2:1e:05:
                    7b:88:98:64:db:1c:71:8d:c8:a0:b2:b4:40:21:40:
                    f6:1a:90:43:14:ca:a5:8c:8f:d6:0b:4a:3d:b9:57:
                    4d:c2:f5:3a:b9:94:0b:de:42:e1:b8:31:a4:d1:cc:
                    3f:a1:c6:79:05:9b:de:70:15:6b:84:90:89:7a:f1:
                    96:d5:52:03:a6:dc:a5:c4:6a:0d:33:41:72:e3:9b:
                    e6:ad:fa:0b:60:9c:22:3c:a5:26:30:5b:cf:d3:a4:
                    ce:45:18:6b:c3:c7:f7:22:59:3c:67:0a:37:ba:22:
                    3b:61:b2:35:f6:21:7a:9f:aa:13:9e:4c:1a:f4:45:
                    3c:36:76:fa:2c:71:5d:2d:c8:58:c0:6d:82:07:cc:
                    72:a2:b1:0e:06:b9:c4:b3:d5:ad
                Exponent: 65537 (0x10001)
        X509v3 extensions:
            X509v3 Key Usage: critical
                Digital Signature, Key Encipherment
            X509v3 Basic Constraints: 
                CA:FALSE
            X509v3 Extended Key Usage: 
                TLS Web Server Authentication, TLS Web Client Authentication
            X509v3 Subject Key Identifier: 
                F4:6C:49:A8:ED:4B:07:EB:A0:07:69:42:30:12:B4:A8:FA:2B:99:37
            X509v3 Authority Key Identifier: 
                keyid:BE:B1:3D:58:AD:A3:FF:8B:B8:1B:73:ED:8D:22:88:9D:30:C2:AF:13

            Authority Information Access: 
                CA Issuers - URI:https://herrenschmidt.pro/ca/auth-ca.cer

            X509v3 CRL Distribution Points: 

                Full Name:
                  URI:https://herrenschmidt.pro/ca/auth-ca.crl

            X509v3 Subject Alternative Name: 
                DNS:yourdomain.tld
    Signature Algorithm: sha256WithRSAEncryption
         0a:c9:e6:99:e0:d9:c0:fe:05:aa:5d:59:28:b7:09:e1:d0:2d:
         e6:af:c3:4b:90:ee:ca:59:f8:8e:33:91:84:1c:88:91:42:74:
         dd:3c:f0:26:ef:4e:73:df:45:c8:21:5d:48:93:81:f3:7e:b2:
         0d:f0:56:b5:1d:6b:b4:1f:bf:46:22:6d:b3:d6:46:f1:a5:a8:
         50:9a:5b:f3:76:59:47:03:23:23:d7:7d:a1:d7:74:a9:e7:14:
         f8:66:0e:79:25:0c:c0:ce:94:2b:6e:4b:d5:99:63:a4:53:d2:
         8b:1d:4e:ae:0c:85:75:36:1e:bd:ab:f6:2a:95:ea:95:32:a8:
         bc:22:40:91:ac:90:ad:f2:71:2b:4a:a3:09:18:94:34:53:22:
         2a:79:65:41:ea:ac:e5:0e:44:f8:c8:2d:e6:48:67:e3:16:bd:
         7b:92:5d:40:78:5f:74:24:bf:02:7c:35:09:a6:3e:55:a6:1a:
         1f:12:1a:9e:5d:06:d9:60:9c:06:9d:39:90:e1:db:03:8e:a0:
         19:64:6e:30:8a:f0:b8:c7:4f:15:d1:5d:08:25:9c:05:a9:4b:
         43:5e:78:56:1e:b1:31:7e:e2:17:4d:da:e8:48:2d:76:3b:20:
         1c:81:19:b9:5b:8d:f3:75:5f:2a:a2:7b:e4:01:97:5d:f1:04:
         42:46:4b:51:eb:7f:15:a9:b5:d5:40:1e:86:30:f0:3b:6a:84:
         2c:49:82:ff:80:72:e9:f8:8f:ca:6e:4b:0b:34:0c:fc:92:3c:
         0d:e6:0e:c9:dd:cd:37:d8:09:02:3c:2f:47:29:b5:58:53:41:
         26:e7:2f:17:cf:7e:a4:21:d9:be:ed:d7:70:0c:7d:82:b1:42:
         d5:06:47:ab:c0:60:d0:75:2f:c7:c3:83:42:20:a4:ed:2c:72:
         1c:19:fc:01:0f:4b:d3:c5:3c:43:fb:47:0c:43:69:62:0a:b9:
         b5:fc:fb:cb:ed:93:d0:b9:13:4e:91:09:c2:7b:f8:19:2f:ca:
         13:7f:1b:0d:e7:30
-----BEGIN CERTIFICATE-----
MIIFeDCCA+CgAwIBAgIBAjANBgkqhkiG9w0BAQsFADBqMQswCQYDVQQGEwJGUjET
MBEGA1UECgwKUHJvamV0IFBLSTEpMCcGA1UECwwgUHJvamV0IFBLSSBDZXJ0aWZp
Y2F0ZSBBdXRob3JpdHkxGzAZBgNVBAMMElByb2pldCBQS0kgQXV0aCBDQTAeFw0x
OTAzMDgwODUxMDVaFw0yMTAzMDcwODUxMDVaMHcxCzAJBgNVBAYTAkZSMQwwCgYD
VQQIDANWYXIxDzANBgNVBAcMBlRvdWxvbjETMBEGA1UECgwKUHJvamV0IFBLSTEZ
MBcGA1UECwwQVGVzdCBTZXJ2ZXIgQ2VydDEZMBcGA1UEAwwQVGVzdCBTZXJ2ZXIg
Q2VydDCCAaIwDQYJKoZIhvcNAQEBBQADggGPADCCAYoCggGBANbNVsNQo/trDAm5
1dK9SichmEkZfHcGDqFKENUqnjJcuI5M8BD/UJKQMemx9iSpHtPrQinpCcLK9SNY
cmb57HX5HocwKClQySTkzfLWDGPVXcZWKPyv9GEfkrq0SODPM1Ar3cABlPB0I1IG
+kZAWzzfc8uA6Ny3zi63xK0Ds4xtKD9QjRIMKOM3haFnyKk0TbPUyK88WVgoBBvS
paVp0eGVcGsfWMUmCk0F2eBf+Kzj4vBT+Uf2+1AHDBNIrfqeINMF+Cb5T5CEXOty
OhFD9LZ484arIYi2dUCMI70w5WAtwrjbkxMx2+DZAqKBsh4Fe4iYZNsccY3IoLK0
QCFA9hqQQxTKpYyP1gtKPblXTcL1OrmUC95C4bgxpNHMP6HGeQWb3nAVa4SQiXrx
ltVSA6bcpcRqDTNBcuOb5q36C2CcIjylJjBbz9OkzkUYa8PH9yJZPGcKN7oiO2Gy
NfYhep+qE55MGvRFPDZ2+ixxXS3IWMBtggfMcqKxDga5xLPVrQIDAQABo4IBGjCC
ARYwDgYDVR0PAQH/BAQDAgWgMAkGA1UdEwQCMAAwHQYDVR0lBBYwFAYIKwYBBQUH
AwEGCCsGAQUFBwMCMB0GA1UdDgQWBBT0bEmo7UsH66AHaUIwErSo+iuZNzAfBgNV
HSMEGDAWgBS+sT1YraP/i7gbc+2NIoidMMKvEzBEBggrBgEFBQcBAQQ4MDYwNAYI
KwYBBQUHMAKGKGh0dHBzOi8vaGVycmVuc2NobWlkdC5wcm8vY2EvYXV0aC1jYS5j
ZXIwOQYDVR0fBDIwMDAuoCygKoYoaHR0cHM6Ly9oZXJyZW5zY2htaWR0LnByby9j
YS9hdXRoLWNhLmNybDAZBgNVHREEEjAQgg55b3VyZG9tYWluLnRsZDANBgkqhkiG
9w0BAQsFAAOCAYEACsnmmeDZwP4Fql1ZKLcJ4dAt5q/DS5Duyln4jjORhByIkUJ0
3TzwJu9Oc99FyCFdSJOB836yDfBWtR1rtB+/RiJts9ZG8aWoUJpb83ZZRwMjI9d9
odd0qecU+GYOeSUMwM6UK25L1ZljpFPSix1OrgyFdTYevav2KpXqlTKovCJAkayQ
rfJxK0qjCRiUNFMiKnllQeqs5Q5E+Mgt5khn4xa9e5JdQHhfdCS/Anw1CaY+VaYa
HxIanl0G2WCcBp05kOHbA46gGWRuMIrwuMdPFdFdCCWcBalLQ154Vh6xMX7iF03a
6EgtdjsgHIEZuVuN83VfKqJ75AGXXfEEQkZLUet/Fam11UAehjDwO2qELEmC/4By
6fiPym5LCzQM/JI8DeYOyd3NN9gJAjwvRym1WFNBJucvF89+pCHZvu3XcAx9grFC
1QZHq8Bg0HUvx8ODQiCk7SxyHBn8AQ9L08U8Q/tHDENpYgq5tfz7y+2T0LkTTpEJ
wnv4GS/KE38bDecw
-----END CERTIFICATE-----
