Certificate:
    Data:
        Version: 3 (0x2)
        Serial Number: 3 (0x3)
    Signature Algorithm: sha256WithRSAEncryption
        Issuer: C=FR, O=Projet PKI, OU=Projet PKI Certificate Authority, CN=Projet PKI Auth CA
        Validity
            Not Before: Mar  8 08:53:58 2019 GMT
            Not After : Jan  1 00:00:00 2020 GMT
        Subject: C=FR, ST=Var, L=Toulon, O=Projet PKI, OU=Test cert server, CN=Test cert server
        Subject Public Key Info:
            Public Key Algorithm: rsaEncryption
                Public-Key: (3072 bit)
                Modulus:
                    00:c5:8b:11:09:3a:47:39:87:ff:07:b3:13:66:e7:
                    46:05:b4:21:94:dc:ea:25:d4:47:17:5e:23:49:29:
                    7c:da:6b:56:a7:89:0c:0e:5b:c5:c5:53:7d:d2:1f:
                    9f:0a:91:a5:06:a8:ac:db:33:5c:57:42:29:84:63:
                    2f:1b:40:58:8e:d2:bb:0e:b0:ec:f2:e4:38:6c:bb:
                    70:83:ff:54:00:33:e1:f7:eb:7b:7e:8b:57:37:ae:
                    41:f0:c1:d3:b7:94:80:03:12:c5:fb:3e:f5:6f:13:
                    6f:ae:e4:85:e2:bd:ee:2c:89:5c:16:e4:17:1a:22:
                    26:75:da:c3:19:d1:69:51:42:7f:b9:65:ef:8b:92:
                    13:d4:ac:32:bf:0c:6d:34:8e:74:1f:c3:6d:3b:7b:
                    48:5d:5b:0f:c8:08:81:a7:31:fc:4a:25:bc:8c:bf:
                    aa:b7:4c:42:16:11:ae:e4:e0:7e:a4:ee:8b:34:4f:
                    57:32:2b:b1:db:bf:ef:ee:59:55:59:05:19:c3:e6:
                    3e:61:db:f1:65:93:d6:bc:4f:0e:87:fb:50:27:ea:
                    9e:76:59:1f:63:b4:c3:fe:a0:b1:3c:29:3b:6e:8d:
                    0b:ff:c7:04:bf:de:b7:cf:b9:42:2e:ad:6f:c4:1a:
                    51:41:a5:28:de:d8:e8:da:bb:92:5e:c9:70:68:62:
                    dc:3b:eb:2a:e2:8c:d9:ea:bf:f7:23:e3:3b:ae:aa:
                    c8:69:b3:3f:62:97:12:95:b7:52:46:a3:ba:73:fb:
                    f2:b1:81:f6:9c:48:5e:a7:28:e5:b7:d1:ab:0d:c0:
                    23:1b:eb:6a:05:b1:26:4c:fc:83:eb:72:26:f1:f0:
                    f1:f4:49:34:bb:36:9e:55:05:55:74:94:c1:56:b5:
                    c2:74:7c:f3:a7:32:70:75:f3:b2:ba:d3:9f:41:6d:
                    fe:bb:64:12:12:19:10:38:bd:3a:b6:73:64:1f:aa:
                    da:78:77:64:b4:2e:43:aa:56:69:63:48:6f:ff:f9:
                    3e:50:b3:0d:63:89:08:86:15:19
                Exponent: 65537 (0x10001)
        X509v3 extensions:
            X509v3 Key Usage: critical
                Digital Signature, Key Encipherment
            X509v3 Basic Constraints: 
                CA:FALSE
            X509v3 Extended Key Usage: 
                TLS Web Server Authentication, TLS Web Client Authentication
            X509v3 Subject Key Identifier: 
                B1:1D:F5:A6:37:34:ED:2B:B6:28:D0:C1:D5:59:36:28:0F:30:9B:78
            X509v3 Authority Key Identifier: 
                keyid:BE:B1:3D:58:AD:A3:FF:8B:B8:1B:73:ED:8D:22:88:9D:30:C2:AF:13

            Authority Information Access: 
                CA Issuers - URI:https://herrenschmidt.pro/ca/auth-ca.cer

            X509v3 CRL Distribution Points: 

                Full Name:
                  URI:https://herrenschmidt.pro/ca/auth-ca.crl

            X509v3 Subject Alternative Name: 
                DNS:yourdomain.tld
    Signature Algorithm: sha256WithRSAEncryption
         7c:c7:69:42:08:ba:0a:2e:41:0b:dc:f3:86:8a:19:a4:6b:b4:
         39:68:ee:c7:e3:8d:a3:bc:67:59:8d:91:33:09:81:e2:54:58:
         a7:0f:35:89:95:cd:25:25:03:c4:1c:17:cc:02:8f:4b:92:2f:
         51:e9:69:8c:d4:32:37:80:2d:87:51:e7:ec:aa:89:30:55:71:
         14:3d:c8:f2:19:9d:80:16:74:37:69:3b:9e:17:2e:1d:3e:07:
         9b:09:d2:67:a0:b1:90:a5:47:42:ee:dc:8c:cc:0c:44:40:4f:
         71:91:53:bd:02:6c:6e:54:b1:c5:ed:6a:f5:fa:52:86:06:0d:
         5c:9f:43:c3:47:41:35:c4:74:08:87:fc:46:55:eb:d3:99:23:
         f9:1b:9f:a8:df:33:1e:8c:5a:7c:89:8d:b8:87:7e:ee:2f:f8:
         15:f6:8d:34:40:08:04:bf:b1:0b:1c:76:bf:0c:d4:3e:44:5c:
         ff:e8:db:71:ae:1b:a8:7e:96:97:4b:68:5c:a9:62:c0:a1:48:
         e3:cd:a3:a8:81:fa:04:0c:b2:16:f4:07:ab:ee:a2:60:d1:e6:
         3c:54:5a:f6:3c:14:c0:b7:fc:a0:c7:60:ba:8f:4e:79:44:0b:
         ed:5c:d6:99:70:26:02:37:16:fc:93:43:23:14:d6:c9:f5:5d:
         6a:61:ac:8c:04:da:d3:36:c0:9f:d9:66:2c:1a:e7:4e:56:c3:
         bc:c2:d1:93:5b:53:67:d3:c1:e5:8a:dc:1a:96:7d:e3:fe:d0:
         ff:7c:aa:ba:76:49:7f:7a:25:05:fa:6e:50:d2:e6:14:c7:53:
         75:c8:5a:31:15:3a:66:b0:8e:68:43:84:55:0c:c8:6b:42:82:
         90:e0:34:e0:86:a9:81:dd:f2:ab:be:d3:bd:90:75:2f:00:54:
         c8:fc:05:34:29:42:c8:d5:e6:d1:3a:b5:88:35:c9:4a:82:2f:
         b0:20:02:3e:5f:1d:6d:cd:03:89:5b:6d:fd:e2:8f:ea:67:dd:
         00:43:de:52:98:09
-----BEGIN CERTIFICATE-----
MIIFeDCCA+CgAwIBAgIBAzANBgkqhkiG9w0BAQsFADBqMQswCQYDVQQGEwJGUjET
MBEGA1UECgwKUHJvamV0IFBLSTEpMCcGA1UECwwgUHJvamV0IFBLSSBDZXJ0aWZp
Y2F0ZSBBdXRob3JpdHkxGzAZBgNVBAMMElByb2pldCBQS0kgQXV0aCBDQTAeFw0x
OTAzMDgwODUzNThaFw0yMDAxMDEwMDAwMDBaMHcxCzAJBgNVBAYTAkZSMQwwCgYD
VQQIDANWYXIxDzANBgNVBAcMBlRvdWxvbjETMBEGA1UECgwKUHJvamV0IFBLSTEZ
MBcGA1UECwwQVGVzdCBjZXJ0IHNlcnZlcjEZMBcGA1UEAwwQVGVzdCBjZXJ0IHNl
cnZlcjCCAaIwDQYJKoZIhvcNAQEBBQADggGPADCCAYoCggGBAMWLEQk6RzmH/wez
E2bnRgW0IZTc6iXURxdeI0kpfNprVqeJDA5bxcVTfdIfnwqRpQaorNszXFdCKYRj
LxtAWI7Suw6w7PLkOGy7cIP/VAAz4ffre36LVzeuQfDB07eUgAMSxfs+9W8Tb67k
heK97iyJXBbkFxoiJnXawxnRaVFCf7ll74uSE9SsMr8MbTSOdB/DbTt7SF1bD8gI
gacx/EolvIy/qrdMQhYRruTgfqTuizRPVzIrsdu/7+5ZVVkFGcPmPmHb8WWT1rxP
Dof7UCfqnnZZH2O0w/6gsTwpO26NC//HBL/et8+5Qi6tb8QaUUGlKN7Y6Nq7kl7J
cGhi3DvrKuKM2eq/9yPjO66qyGmzP2KXEpW3UkajunP78rGB9pxIXqco5bfRqw3A
IxvragWxJkz8g+tyJvHw8fRJNLs2nlUFVXSUwVa1wnR886cycHXzsrrTn0Ft/rtk
EhIZEDi9OrZzZB+q2nh3ZLQuQ6pWaWNIb//5PlCzDWOJCIYVGQIDAQABo4IBGjCC
ARYwDgYDVR0PAQH/BAQDAgWgMAkGA1UdEwQCMAAwHQYDVR0lBBYwFAYIKwYBBQUH
AwEGCCsGAQUFBwMCMB0GA1UdDgQWBBSxHfWmNzTtK7Yo0MHVWTYoDzCbeDAfBgNV
HSMEGDAWgBS+sT1YraP/i7gbc+2NIoidMMKvEzBEBggrBgEFBQcBAQQ4MDYwNAYI
KwYBBQUHMAKGKGh0dHBzOi8vaGVycmVuc2NobWlkdC5wcm8vY2EvYXV0aC1jYS5j
ZXIwOQYDVR0fBDIwMDAuoCygKoYoaHR0cHM6Ly9oZXJyZW5zY2htaWR0LnByby9j
YS9hdXRoLWNhLmNybDAZBgNVHREEEjAQgg55b3VyZG9tYWluLnRsZDANBgkqhkiG
9w0BAQsFAAOCAYEAfMdpQgi6Ci5BC9zzhooZpGu0OWjux+ONo7xnWY2RMwmB4lRY
pw81iZXNJSUDxBwXzAKPS5IvUelpjNQyN4Ath1Hn7KqJMFVxFD3I8hmdgBZ0N2k7
nhcuHT4HmwnSZ6CxkKVHQu7cjMwMREBPcZFTvQJsblSxxe1q9fpShgYNXJ9Dw0dB
NcR0CIf8RlXr05kj+RufqN8zHoxafImNuId+7i/4FfaNNEAIBL+xCxx2vwzUPkRc
/+jbca4bqH6Wl0toXKliwKFI482jqIH6BAyyFvQHq+6iYNHmPFRa9jwUwLf8oMdg
uo9OeUQL7VzWmXAmAjcW/JNDIxTWyfVdamGsjATa0zbAn9lmLBrnTlbDvMLRk1tT
Z9PB5YrcGpZ94/7Q/3yqunZJf3olBfpuUNLmFMdTdchaMRU6ZrCOaEOEVQzIa0KC
kOA04Iapgd3yq77TvZB1LwBUyPwFNClCyNXm0Tq1iDXJSoIvsCACPl8dbc0DiVtt
/eKP6mfdAEPeUpgJ
-----END CERTIFICATE-----
