Certificate:
    Data:
        Version: 3 (0x2)
        Serial Number: 4 (0x4)
    Signature Algorithm: sha256WithRSAEncryption
        Issuer: C=FR, O=Projet PKI, OU=Projet PKI Certificate Authority, CN=Projet PKI Auth CA
        Validity
            Not Before: Mar  8 09:08:32 2019 GMT
            Not After : Jan  1 00:00:00 2020 GMT
        Subject: C=FR, ST=Var, L=Toulon, O=Projet PKI, OU=test auth, CN=www.test.fr
        Subject Public Key Info:
            Public Key Algorithm: rsaEncryption
                Public-Key: (3072 bit)
                Modulus:
                    00:dd:1f:d9:2b:9b:3e:d5:56:5c:8b:53:98:4b:90:
                    8b:a2:20:dc:d1:f1:86:89:6f:99:7f:ce:32:1f:1e:
                    ac:dc:60:b2:bb:04:a8:bd:35:37:5a:c5:0a:67:0e:
                    c4:27:f9:45:69:6f:8c:b1:c0:18:80:c0:e0:8a:5f:
                    35:cd:52:19:3c:b3:3b:cc:97:ef:5d:07:cb:1d:29:
                    3e:5e:e5:ae:67:cd:ef:0c:9b:64:db:73:74:b0:b1:
                    25:28:97:de:1f:03:3c:af:0a:77:84:fc:85:e0:56:
                    36:eb:7f:46:64:16:2b:a7:0c:eb:d1:1b:a0:04:83:
                    6d:d2:72:90:47:fd:f4:68:6e:a0:93:5d:d0:25:cd:
                    a6:76:30:68:67:ef:5b:fd:ae:cf:aa:6a:83:12:81:
                    1d:b0:74:ce:d4:22:1f:fc:aa:a6:fa:17:ee:c1:be:
                    19:4e:a6:1d:27:54:fe:f0:d8:72:99:04:be:be:d5:
                    7b:7a:d0:f6:bd:cc:d7:9f:5a:36:76:a1:1d:83:e6:
                    81:1a:6e:4b:1e:3f:c0:08:8f:c0:45:01:d0:90:f5:
                    28:6f:28:ef:58:b6:6e:64:f1:08:55:b0:3e:5c:c5:
                    53:67:ae:6a:44:f5:05:22:87:c9:b2:07:fb:5b:18:
                    17:9c:55:2f:3b:99:4e:28:c0:5b:27:e6:14:3a:02:
                    f8:43:14:c4:42:20:65:71:8a:7d:68:3e:b2:01:4b:
                    00:49:26:13:dd:99:d2:0b:9d:60:98:d5:e2:b2:2a:
                    4a:bb:53:3d:98:fb:64:fb:b1:d5:05:6a:1a:b7:85:
                    65:35:97:81:59:86:eb:08:42:c7:60:38:30:4a:09:
                    e6:74:da:78:b3:48:96:9a:84:09:f0:16:b4:ff:c4:
                    80:46:0b:06:c4:f1:4c:05:fe:bd:03:7a:75:1c:10:
                    4b:2b:8f:12:30:14:fc:b1:14:fa:a9:bb:06:80:06:
                    3a:72:3b:cd:be:c5:51:2e:54:71:14:d1:e9:f9:a3:
                    32:11:31:b9:55:31:5d:12:78:dd
                Exponent: 65537 (0x10001)
        X509v3 extensions:
            X509v3 Key Usage: critical
                Digital Signature, Key Encipherment
            X509v3 Basic Constraints: 
                CA:FALSE
            X509v3 Extended Key Usage: 
                TLS Web Server Authentication, TLS Web Client Authentication
            X509v3 Subject Key Identifier: 
                E0:C2:3F:35:B9:96:07:8D:F9:B2:FB:3F:A1:0C:6A:92:52:EF:3B:8B
            X509v3 Authority Key Identifier: 
                keyid:BE:B1:3D:58:AD:A3:FF:8B:B8:1B:73:ED:8D:22:88:9D:30:C2:AF:13

            Authority Information Access: 
                CA Issuers - URI:https://herrenschmidt.pro/ca/auth-ca.cer

            X509v3 CRL Distribution Points: 

                Full Name:
                  URI:https://herrenschmidt.pro/ca/auth-ca.crl

            X509v3 Subject Alternative Name: 
                DNS:yourdomain.tld
    Signature Algorithm: sha256WithRSAEncryption
         42:78:4b:29:09:20:ed:34:3d:93:bf:35:75:0e:95:01:bb:a8:
         5b:52:f3:2b:d6:8d:27:ec:6d:6b:c1:3a:25:12:0d:62:a4:73:
         37:b0:bf:d0:d9:8b:e5:e2:e6:55:a2:80:59:66:ea:26:f6:d0:
         6c:aa:8e:09:cc:89:e4:92:29:1c:bd:0f:e6:02:fc:62:80:44:
         a4:43:5f:3d:35:b5:3b:0d:30:6c:60:83:33:d5:b7:5c:ee:ba:
         95:b5:44:95:6d:de:fe:34:d4:71:60:f5:37:f0:12:72:e8:2c:
         3f:15:a7:68:5b:2e:20:ee:e1:f4:40:15:95:3d:d1:8c:e0:83:
         b5:48:b6:61:8f:26:1f:99:8c:85:b8:c5:53:51:26:e8:e2:74:
         92:09:ad:85:d1:cc:f4:19:db:c1:c2:eb:2e:db:21:6b:76:5c:
         c3:5e:04:a8:4e:7a:13:a2:97:25:74:ae:e9:28:cf:ed:81:5f:
         c4:9a:2b:59:8e:84:20:a2:be:ba:fb:45:dc:d3:3a:d2:ed:f5:
         a4:d4:78:e5:67:b4:77:77:ff:6d:74:6d:7e:9e:62:2c:b6:67:
         20:cb:83:6e:86:ff:4e:63:dd:9c:e6:f1:f4:dd:11:b9:7b:af:
         0e:4a:37:ef:84:aa:1e:68:5d:e9:3c:51:fa:20:bd:c1:99:67:
         14:89:3a:89:82:9c:18:34:7e:6c:ae:cb:48:1d:c4:63:e7:dd:
         b5:0a:30:70:3f:7a:65:0d:19:4e:d5:ea:bf:d4:c5:22:32:30:
         92:64:29:9a:33:01:04:aa:e7:b6:f2:50:83:1f:76:55:b4:f2:
         11:c2:c5:cb:ab:52:ec:a0:f6:f3:60:fb:e0:2d:fd:ac:a4:98:
         f8:f9:8e:89:de:8b:70:53:38:5c:37:86:10:ce:e1:67:46:21:
         0a:57:7b:2d:59:b2:e4:a6:e6:83:ae:ca:60:8d:26:fa:1e:76:
         59:34:bc:e9:e7:04:f5:d5:7e:49:e9:7a:e2:40:79:d1:31:2a:
         3b:45:f4:7b:c4:60
-----BEGIN CERTIFICATE-----
MIIFbDCCA9SgAwIBAgIBBDANBgkqhkiG9w0BAQsFADBqMQswCQYDVQQGEwJGUjET
MBEGA1UECgwKUHJvamV0IFBLSTEpMCcGA1UECwwgUHJvamV0IFBLSSBDZXJ0aWZp
Y2F0ZSBBdXRob3JpdHkxGzAZBgNVBAMMElByb2pldCBQS0kgQXV0aCBDQTAeFw0x
OTAzMDgwOTA4MzJaFw0yMDAxMDEwMDAwMDBaMGsxCzAJBgNVBAYTAkZSMQwwCgYD
VQQIDANWYXIxDzANBgNVBAcMBlRvdWxvbjETMBEGA1UECgwKUHJvamV0IFBLSTES
MBAGA1UECwwJdGVzdCBhdXRoMRQwEgYDVQQDDAt3d3cudGVzdC5mcjCCAaIwDQYJ
KoZIhvcNAQEBBQADggGPADCCAYoCggGBAN0f2SubPtVWXItTmEuQi6Ig3NHxholv
mX/OMh8erNxgsrsEqL01N1rFCmcOxCf5RWlvjLHAGIDA4IpfNc1SGTyzO8yX710H
yx0pPl7lrmfN7wybZNtzdLCxJSiX3h8DPK8Kd4T8heBWNut/RmQWK6cM69EboASD
bdJykEf99GhuoJNd0CXNpnYwaGfvW/2uz6pqgxKBHbB0ztQiH/yqpvoX7sG+GU6m
HSdU/vDYcpkEvr7Ve3rQ9r3M159aNnahHYPmgRpuSx4/wAiPwEUB0JD1KG8o71i2
bmTxCFWwPlzFU2euakT1BSKHybIH+1sYF5xVLzuZTijAWyfmFDoC+EMUxEIgZXGK
fWg+sgFLAEkmE92Z0gudYJjV4rIqSrtTPZj7ZPux1QVqGreFZTWXgVmG6whCx2A4
MEoJ5nTaeLNIlpqECfAWtP/EgEYLBsTxTAX+vQN6dRwQSyuPEjAU/LEU+qm7BoAG
OnI7zb7FUS5UcRTR6fmjMhExuVUxXRJ43QIDAQABo4IBGjCCARYwDgYDVR0PAQH/
BAQDAgWgMAkGA1UdEwQCMAAwHQYDVR0lBBYwFAYIKwYBBQUHAwEGCCsGAQUFBwMC
MB0GA1UdDgQWBBTgwj81uZYHjfmy+z+hDGqSUu87izAfBgNVHSMEGDAWgBS+sT1Y
raP/i7gbc+2NIoidMMKvEzBEBggrBgEFBQcBAQQ4MDYwNAYIKwYBBQUHMAKGKGh0
dHBzOi8vaGVycmVuc2NobWlkdC5wcm8vY2EvYXV0aC1jYS5jZXIwOQYDVR0fBDIw
MDAuoCygKoYoaHR0cHM6Ly9oZXJyZW5zY2htaWR0LnByby9jYS9hdXRoLWNhLmNy
bDAZBgNVHREEEjAQgg55b3VyZG9tYWluLnRsZDANBgkqhkiG9w0BAQsFAAOCAYEA
QnhLKQkg7TQ9k781dQ6VAbuoW1LzK9aNJ+xta8E6JRINYqRzN7C/0NmL5eLmVaKA
WWbqJvbQbKqOCcyJ5JIpHL0P5gL8YoBEpENfPTW1Ow0wbGCDM9W3XO66lbVElW3e
/jTUcWD1N/AScugsPxWnaFsuIO7h9EAVlT3RjOCDtUi2YY8mH5mMhbjFU1Em6OJ0
kgmthdHM9BnbwcLrLtsha3Zcw14EqE56E6KXJXSu6SjP7YFfxJorWY6EIKK+uvtF
3NM60u31pNR45We0d3f/bXRtfp5iLLZnIMuDbob/TmPdnObx9N0RuXuvDko374Sq
Hmhd6TxR+iC9wZlnFIk6iYKcGDR+bK7LSB3EY+fdtQowcD96ZQ0ZTtXqv9TFIjIw
kmQpmjMBBKrntvJQgx92VbTyEcLFy6tS7KD282D74C39rKSY+PmOid6LcFM4XDeG
EM7hZ0YhCld7LVmy5Kbmg67KYI0m+h52WTS86ecE9dV+Sel64kB50TEqO0X0e8Rg
-----END CERTIFICATE-----
