Certificate:
    Data:
        Version: 3 (0x2)
        Serial Number: 5 (0x5)
    Signature Algorithm: sha256WithRSAEncryption
        Issuer: C=FR, O=Projet PKI, OU=Projet PKI Certificate Authority, CN=Projet PKI Auth CA
        Validity
            Not Before: Mar  8 09:31:57 2019 GMT
            Not After : Jan  1 00:00:00 2020 GMT
        Subject: C=FR, ST=Var, L=Toulon, O=Projet PKI, OU=test cert serveur, CN=serveur.fr
        Subject Public Key Info:
            Public Key Algorithm: rsaEncryption
                Public-Key: (3072 bit)
                Modulus:
                    00:aa:e3:79:5b:5a:70:93:e3:4d:9b:0d:8b:90:13:
                    1c:32:25:49:82:1d:22:00:93:6e:6f:5a:c3:dd:a2:
                    0e:29:64:a7:bd:10:11:c8:b5:ab:3e:32:d0:ca:f8:
                    6b:31:c4:e4:e8:59:86:59:01:0b:d3:c0:e6:32:f4:
                    b4:26:44:83:1a:27:2d:1d:cd:1f:cf:ad:fb:05:b9:
                    f3:34:e8:61:c8:13:eb:21:1d:8d:9e:2a:82:c6:4b:
                    f8:de:53:80:58:e1:cb:c8:1d:05:11:80:fa:7c:61:
                    1f:ea:a7:57:e3:c2:34:da:aa:54:b5:82:6e:d5:53:
                    78:ac:d0:7a:b3:1d:74:c2:ba:2d:5b:82:85:d0:bc:
                    e8:9d:4a:41:cd:aa:75:1e:94:13:6d:30:81:9b:c2:
                    be:9f:22:31:dd:a3:9d:5f:11:5c:06:2f:d1:98:f6:
                    7f:40:3a:b4:99:13:97:78:a9:21:f8:4f:2a:38:8b:
                    ba:09:21:3d:c4:d8:2f:5f:92:b8:6d:0f:d4:75:5b:
                    eb:a5:07:61:e2:2e:d1:83:9b:7f:a0:54:1c:31:e0:
                    31:0d:b7:1c:3f:35:e5:27:76:9c:c7:b4:2c:8e:ea:
                    53:f2:81:09:fe:cc:ef:24:fb:28:6f:c0:e1:c8:01:
                    d0:04:7b:a0:ed:7d:aa:23:c6:01:7d:57:75:2a:6c:
                    c3:a6:44:4d:5c:94:07:9b:b5:b3:07:ce:7f:00:1b:
                    ba:16:44:69:e4:1b:ba:6a:d9:ac:48:05:32:99:db:
                    03:f7:34:29:1b:45:1a:86:62:3f:7b:6e:54:12:0a:
                    5c:48:05:ba:1f:56:34:f4:30:2f:a6:1c:bd:69:39:
                    af:3d:15:d7:f9:45:44:99:84:20:82:2a:21:5a:b3:
                    4f:01:4a:a1:2f:f6:1b:16:82:6f:ba:5a:3f:91:fd:
                    e7:98:af:c7:03:fc:87:28:12:ab:87:a4:d8:44:c5:
                    77:ec:3b:56:f9:d6:bc:20:dd:ca:02:1f:7c:e0:88:
                    f4:80:9a:c4:a8:a5:33:43:8f:8b
                Exponent: 65537 (0x10001)
        X509v3 extensions:
            X509v3 Key Usage: critical
                Digital Signature, Key Encipherment
            X509v3 Basic Constraints: 
                CA:FALSE
            X509v3 Extended Key Usage: 
                TLS Web Server Authentication, TLS Web Client Authentication
            X509v3 Subject Key Identifier: 
                9F:0D:D1:B3:12:65:D9:B2:87:83:EF:E7:9B:E5:13:DE:E8:48:4B:9D
            X509v3 Authority Key Identifier: 
                keyid:BE:B1:3D:58:AD:A3:FF:8B:B8:1B:73:ED:8D:22:88:9D:30:C2:AF:13

            Authority Information Access: 
                CA Issuers - URI:https://herrenschmidt.pro/ca/auth-ca.cer

            X509v3 CRL Distribution Points: 

                Full Name:
                  URI:https://herrenschmidt.pro/ca/auth-ca.crl

            X509v3 Subject Alternative Name: 
                DNS:yourdomain.tld
    Signature Algorithm: sha256WithRSAEncryption
         96:6a:74:ed:23:33:fc:83:19:7a:90:6f:34:09:fe:9c:91:57:
         9a:32:ab:45:c8:55:97:2c:4e:aa:76:2e:69:4d:de:4e:48:33:
         c0:c7:62:99:dd:fc:65:f6:91:96:fc:20:80:bd:db:29:de:d6:
         82:7a:cb:6a:fd:4f:c9:60:98:f9:0d:48:5e:d1:32:83:f8:57:
         bc:85:5b:65:de:71:c6:c7:55:da:d8:1e:d0:3f:55:df:46:1c:
         12:0d:3d:ea:e0:20:4a:3f:08:87:08:c0:65:bc:d4:97:87:8c:
         c2:da:fd:16:07:51:23:fa:ec:2a:38:d8:f0:1b:0b:51:81:ae:
         01:a2:92:35:03:d9:cc:74:1f:08:e0:d2:20:09:7d:b6:9f:27:
         c7:ba:1a:a3:b6:22:8a:78:de:5b:9b:86:70:a9:d8:f9:5f:2a:
         e0:d0:81:3f:fe:22:44:eb:49:71:3d:f6:53:aa:35:66:c7:5b:
         f2:87:7b:d7:ef:76:a3:73:e8:94:4f:94:6b:cb:b3:27:76:f3:
         14:a3:63:f9:dd:a1:b3:a9:f0:fe:92:63:3b:d0:22:3a:3d:22:
         74:2b:d0:8e:d2:24:70:ae:67:37:bc:ec:b4:0d:db:cd:39:0a:
         19:5a:b6:49:69:d6:e1:27:bd:0b:e2:9b:4c:80:49:8c:15:93:
         75:6b:d7:45:d7:a3:b3:9c:cf:82:ed:10:19:45:1b:16:45:01:
         90:39:4f:14:09:ed:c3:2a:95:6b:3f:94:1a:f8:c4:52:2c:63:
         83:e4:b0:84:3a:87:33:04:89:66:f2:22:dd:14:08:7b:1c:25:
         48:17:24:9d:d5:15:a5:9d:b2:b5:d0:5d:d7:3f:80:5c:25:8e:
         51:e7:df:02:d5:c0:3f:2d:7d:87:e9:2b:1e:20:c0:63:ad:93:
         45:44:e5:de:e1:b2:70:89:33:02:f6:fa:18:b1:61:36:6e:19:
         1b:02:9b:63:ba:d2:bc:69:a2:87:e3:0f:84:db:03:f7:1e:b7:
         11:e1:7f:fd:50:ab
-----BEGIN CERTIFICATE-----
MIIFczCCA9ugAwIBAgIBBTANBgkqhkiG9w0BAQsFADBqMQswCQYDVQQGEwJGUjET
MBEGA1UECgwKUHJvamV0IFBLSTEpMCcGA1UECwwgUHJvamV0IFBLSSBDZXJ0aWZp
Y2F0ZSBBdXRob3JpdHkxGzAZBgNVBAMMElByb2pldCBQS0kgQXV0aCBDQTAeFw0x
OTAzMDgwOTMxNTdaFw0yMDAxMDEwMDAwMDBaMHIxCzAJBgNVBAYTAkZSMQwwCgYD
VQQIDANWYXIxDzANBgNVBAcMBlRvdWxvbjETMBEGA1UECgwKUHJvamV0IFBLSTEa
MBgGA1UECwwRdGVzdCBjZXJ0IHNlcnZldXIxEzARBgNVBAMMCnNlcnZldXIuZnIw
ggGiMA0GCSqGSIb3DQEBAQUAA4IBjwAwggGKAoIBgQCq43lbWnCT402bDYuQExwy
JUmCHSIAk25vWsPdog4pZKe9EBHItas+MtDK+GsxxOToWYZZAQvTwOYy9LQmRIMa
Jy0dzR/PrfsFufM06GHIE+shHY2eKoLGS/jeU4BY4cvIHQURgPp8YR/qp1fjwjTa
qlS1gm7VU3is0HqzHXTCui1bgoXQvOidSkHNqnUelBNtMIGbwr6fIjHdo51fEVwG
L9GY9n9AOrSZE5d4qSH4Tyo4i7oJIT3E2C9fkrhtD9R1W+ulB2HiLtGDm3+gVBwx
4DENtxw/NeUndpzHtCyO6lPygQn+zO8k+yhvwOHIAdAEe6DtfaojxgF9V3UqbMOm
RE1clAebtbMHzn8AG7oWRGnkG7pq2axIBTKZ2wP3NCkbRRqGYj97blQSClxIBbof
VjT0MC+mHL1pOa89Fdf5RUSZhCCCKiFas08BSqEv9hsWgm+6Wj+R/eeYr8cD/Ico
EquHpNhExXfsO1b51rwg3coCH3zgiPSAmsSopTNDj4sCAwEAAaOCARowggEWMA4G
A1UdDwEB/wQEAwIFoDAJBgNVHRMEAjAAMB0GA1UdJQQWMBQGCCsGAQUFBwMBBggr
BgEFBQcDAjAdBgNVHQ4EFgQUnw3RsxJl2bKHg+/nm+UT3uhIS50wHwYDVR0jBBgw
FoAUvrE9WK2j/4u4G3PtjSKInTDCrxMwRAYIKwYBBQUHAQEEODA2MDQGCCsGAQUF
BzAChihodHRwczovL2hlcnJlbnNjaG1pZHQucHJvL2NhL2F1dGgtY2EuY2VyMDkG
A1UdHwQyMDAwLqAsoCqGKGh0dHBzOi8vaGVycmVuc2NobWlkdC5wcm8vY2EvYXV0
aC1jYS5jcmwwGQYDVR0RBBIwEIIOeW91cmRvbWFpbi50bGQwDQYJKoZIhvcNAQEL
BQADggGBAJZqdO0jM/yDGXqQbzQJ/pyRV5oyq0XIVZcsTqp2LmlN3k5IM8DHYpnd
/GX2kZb8IIC92yne1oJ6y2r9T8lgmPkNSF7RMoP4V7yFW2XeccbHVdrYHtA/Vd9G
HBINPergIEo/CIcIwGW81JeHjMLa/RYHUSP67Co42PAbC1GBrgGikjUD2cx0Hwjg
0iAJfbafJ8e6GqO2Iop43lubhnCp2PlfKuDQgT/+IkTrSXE99lOqNWbHW/KHe9fv
dqNz6JRPlGvLsyd28xSjY/ndobOp8P6SYzvQIjo9InQr0I7SJHCuZze87LQN2805
Chlatklp1uEnvQvim0yASYwVk3Vr10XXo7Ocz4LtEBlFGxZFAZA5TxQJ7cMqlWs/
lBr4xFIsY4PksIQ6hzMEiWbyIt0UCHscJUgXJJ3VFaWdsrXQXdc/gFwljlHn3wLV
wD8tfYfpKx4gwGOtk0VE5d7hsnCJMwL2+hixYTZuGRsCm2O60rxpoofjD4TbA/ce
txHhf/1Qqw==
-----END CERTIFICATE-----
