Certificate:
    Data:
        Version: 3 (0x2)
        Serial Number: 1 (0x1)
    Signature Algorithm: sha256WithRSAEncryption
        Issuer: C=NO, O=Green AS, OU=Green Certificate Authority, CN=Green Root CA
        Validity
            Not Before: Mar  7 09:24:32 2019 GMT
            Not After : Dec 31 23:59:59 2030 GMT
        Subject: C=NO, O=Green AS, OU=Green Certificate Authority, CN=Green Root CA
        Subject Public Key Info:
            Public Key Algorithm: rsaEncryption
                Public-Key: (3072 bit)
                Modulus:
                    00:cc:c8:59:a6:09:53:06:23:41:7b:7b:b2:4f:80:
                    7a:5f:b7:30:08:38:7f:3d:fd:1b:5f:41:df:84:07:
                    1c:e5:0b:d5:06:c2:ff:f8:ad:76:aa:e0:87:0e:a1:
                    00:2e:98:79:24:2a:75:18:06:eb:9e:cb:a5:f0:d8:
                    1a:ee:97:b4:aa:c2:9a:f4:a5:45:6f:b9:e4:12:cf:
                    b9:18:a2:cd:e3:5f:64:81:f3:92:03:9c:59:35:ec:
                    e0:1e:cf:1d:f3:06:c4:af:20:59:40:fc:cf:72:84:
                    fd:79:24:d4:c7:e7:b4:3d:3d:99:81:0d:f6:a7:16:
                    b9:af:e3:3f:4d:3e:a3:c4:5f:fe:ff:9a:5b:31:96:
                    a0:07:55:d6:f8:d9:5d:61:08:05:5d:97:55:31:52:
                    7d:31:8c:3e:07:d7:d1:d9:41:d8:58:8c:cf:0f:e0:
                    5f:98:4b:af:90:82:24:d4:b3:39:0f:cc:16:9d:e3:
                    7d:cd:1e:88:45:66:1a:cd:96:30:aa:9c:b5:b4:ea:
                    f7:db:4d:68:74:ec:f5:e5:02:16:a5:a0:57:bc:35:
                    bb:ba:f4:2e:53:60:98:cc:25:08:38:73:c0:44:41:
                    6b:5d:53:26:7a:26:3f:9c:55:1f:f1:4c:1e:77:48:
                    6a:c2:23:7d:2c:f9:c1:16:58:3c:83:36:b7:58:bf:
                    61:1e:4c:73:0e:35:fd:84:ca:04:6a:23:bf:23:db:
                    0b:29:35:14:ad:d0:90:b3:09:18:5c:7f:d3:4d:f7:
                    c8:62:20:24:f4:1b:e9:93:0e:47:00:4f:9f:89:e5:
                    96:7e:29:51:a0:9e:89:e8:58:92:cc:bb:29:1e:9d:
                    f5:61:f7:59:e3:f4:3b:1f:95:0f:c8:07:92:e1:6a:
                    76:fb:2e:54:82:e7:39:a4:ef:17:a9:b0:93:7c:27:
                    f9:7f:d4:21:52:db:0c:a9:7f:f9:b8:e8:04:d0:7b:
                    07:6b:16:24:4d:35:6c:e9:86:ef:97:de:b8:bc:8e:
                    a3:2c:f2:20:6d:a2:2c:4e:52:c1
                Exponent: 65537 (0x10001)
        X509v3 extensions:
            X509v3 Key Usage: critical
                Certificate Sign, CRL Sign
            X509v3 Basic Constraints: critical
                CA:TRUE
            X509v3 Subject Key Identifier: 
                3E:FC:B9:0A:DA:2E:17:E6:AB:AB:66:EC:B7:33:39:6C:59:AF:AE:02
            X509v3 Authority Key Identifier: 
                keyid:3E:FC:B9:0A:DA:2E:17:E6:AB:AB:66:EC:B7:33:39:6C:59:AF:AE:02

    Signature Algorithm: sha256WithRSAEncryption
         1b:f9:28:cb:47:f9:f7:2c:59:95:e5:21:57:c3:1d:3d:36:61:
         a7:ca:a9:8f:55:02:6e:57:47:d7:b1:c7:01:72:e0:a3:74:4c:
         c2:bc:8f:0c:68:fe:d7:bf:e5:9c:70:b7:49:b4:6f:65:a6:c9:
         dc:07:92:35:0b:7c:69:bf:1b:7c:68:32:c1:f4:c9:c2:e4:7e:
         e1:0e:37:ca:14:db:30:7e:c9:0b:c4:b8:7a:0d:65:78:a6:8d:
         5d:e1:ae:18:0d:5d:cb:92:74:02:13:c6:1b:27:11:0c:a5:b8:
         c6:e0:4c:0b:89:80:5a:4a:07:ac:98:e7:2e:31:d4:bf:3f:a0:
         d7:4f:e8:8e:f6:ba:89:93:f7:50:f0:51:75:6c:92:c5:d2:8a:
         6a:19:58:93:b2:f5:21:f1:5b:80:4c:ce:08:52:98:c3:33:21:
         d9:5a:ce:0c:a4:d0:14:78:df:5f:27:d6:f7:5a:27:67:2a:b3:
         e9:56:73:e4:fa:be:6f:8b:1b:2e:fe:19:d3:a3:61:b3:6e:ea:
         95:57:a7:c6:73:12:9c:66:37:0b:6a:45:2f:76:43:9c:04:a8:
         30:05:ee:19:81:6c:ed:2f:88:f3:e0:97:c1:24:91:c2:4a:21:
         9a:63:ae:7c:15:40:56:b5:9a:3c:ea:89:9c:c3:86:54:86:d7:
         e5:35:05:45:1e:4a:9c:2a:7c:4b:db:8e:a8:3a:51:6f:ba:a9:
         bc:56:01:fe:de:fe:b6:5e:7c:23:0b:fb:4f:a4:0f:c2:18:41:
         77:ef:9b:51:24:3f:25:75:cd:1d:4c:10:be:c9:56:12:52:d7:
         fe:71:d3:72:00:00:6f:2a:77:be:22:95:b7:49:06:33:15:5a:
         b6:d8:9a:75:b4:85:92:40:2f:86:c0:26:19:85:fc:35:bc:00:
         44:37:2b:76:87:17:af:6d:0f:be:86:b5:5d:ea:2d:70:9f:cd:
         ac:26:e1:f1:4b:d2:1b:05:cb:5d:30:46:9a:2c:e2:58:70:a5:
         9f:b6:a9:09:a7:1e
-----BEGIN CERTIFICATE-----
MIIEmjCCAwKgAwIBAgIBATANBgkqhkiG9w0BAQsFADBeMQswCQYDVQQGEwJOTzER
MA8GA1UECgwIR3JlZW4gQVMxJDAiBgNVBAsMG0dyZWVuIENlcnRpZmljYXRlIEF1
dGhvcml0eTEWMBQGA1UEAwwNR3JlZW4gUm9vdCBDQTAeFw0xOTAzMDcwOTI0MzJa
Fw0zMDEyMzEyMzU5NTlaMF4xCzAJBgNVBAYTAk5PMREwDwYDVQQKDAhHcmVlbiBB
UzEkMCIGA1UECwwbR3JlZW4gQ2VydGlmaWNhdGUgQXV0aG9yaXR5MRYwFAYDVQQD
DA1HcmVlbiBSb290IENBMIIBojANBgkqhkiG9w0BAQEFAAOCAY8AMIIBigKCAYEA
zMhZpglTBiNBe3uyT4B6X7cwCDh/Pf0bX0HfhAcc5QvVBsL/+K12quCHDqEALph5
JCp1GAbrnsul8Nga7pe0qsKa9KVFb7nkEs+5GKLN419kgfOSA5xZNezgHs8d8wbE
ryBZQPzPcoT9eSTUx+e0PT2ZgQ32pxa5r+M/TT6jxF/+/5pbMZagB1XW+NldYQgF
XZdVMVJ9MYw+B9fR2UHYWIzPD+BfmEuvkIIk1LM5D8wWneN9zR6IRWYazZYwqpy1
tOr3201odOz15QIWpaBXvDW7uvQuU2CYzCUIOHPAREFrXVMmeiY/nFUf8Uwed0hq
wiN9LPnBFlg8gza3WL9hHkxzDjX9hMoEaiO/I9sLKTUUrdCQswkYXH/TTffIYiAk
9Bvpkw5HAE+fieWWfilRoJ6J6FiSzLspHp31YfdZ4/Q7H5UPyAeS4Wp2+y5Uguc5
pO8XqbCTfCf5f9QhUtsMqX/5uOgE0HsHaxYkTTVs6Ybvl964vI6jLPIgbaIsTlLB
AgMBAAGjYzBhMA4GA1UdDwEB/wQEAwIBBjAPBgNVHRMBAf8EBTADAQH/MB0GA1Ud
DgQWBBQ+/LkK2i4X5qurZuy3MzlsWa+uAjAfBgNVHSMEGDAWgBQ+/LkK2i4X5qur
Zuy3MzlsWa+uAjANBgkqhkiG9w0BAQsFAAOCAYEAG/koy0f59yxZleUhV8MdPTZh
p8qpj1UCbldH17HHAXLgo3RMwryPDGj+17/lnHC3SbRvZabJ3AeSNQt8ab8bfGgy
wfTJwuR+4Q43yhTbMH7JC8S4eg1leKaNXeGuGA1dy5J0AhPGGycRDKW4xuBMC4mA
WkoHrJjnLjHUvz+g10/ojva6iZP3UPBRdWySxdKKahlYk7L1IfFbgEzOCFKYwzMh
2VrODKTQFHjfXyfW91onZyqz6VZz5Pq+b4sbLv4Z06Nhs27qlVenxnMSnGY3C2pF
L3ZDnASoMAXuGYFs7S+I8+CXwSSRwkohmmOufBVAVrWaPOqJnMOGVIbX5TUFRR5K
nCp8S9uOqDpRb7qpvFYB/t7+tl58Iwv7T6QPwhhBd++bUSQ/JXXNHUwQvslWElLX
/nHTcgAAbyp3viKVt0kGMxVattiadbSFkkAvhsAmGYX8NbwARDcrdocXr20Pvoa1
XeotcJ/NrCbh8UvSGwXLXTBGmiziWHCln7apCace
-----END CERTIFICATE-----
