Certificate:
    Data:
        Version: 3 (0x2)
        Serial Number: 2 (0x2)
    Signature Algorithm: sha256WithRSAEncryption
        Issuer: C=NO, O=Green AS, OU=Green Certificate Authority, CN=Green Root CA
        Validity
            Not Before: Mar  7 09:51:32 2019 GMT
            Not After : Dec 31 23:59:59 2030 GMT
        Subject: C=NO, O=Green AS, OU=Green Certificate Authority, CN=Green Root CA
        Subject Public Key Info:
            Public Key Algorithm: rsaEncryption
                Public-Key: (3072 bit)
                Modulus:
                    00:9d:b1:ec:27:1e:ce:09:6c:ae:14:a1:fc:14:7e:
                    71:68:1d:e9:02:95:ff:29:99:e2:58:d4:11:5e:12:
                    e9:6f:21:61:d0:7b:4b:dc:5d:90:30:aa:64:24:36:
                    c6:26:23:54:fb:12:ec:a3:f2:c5:25:39:7a:97:df:
                    cd:8b:73:e9:f6:a3:43:33:ea:13:db:42:38:12:6c:
                    4f:aa:fc:61:62:8f:4a:c3:08:17:97:8b:39:1b:bc:
                    57:4a:54:b2:b2:6c:f2:f2:bb:5d:ab:19:1b:62:4c:
                    33:22:1b:b0:7a:0d:03:f4:97:c1:98:49:16:c7:9d:
                    1e:18:27:59:22:d6:e0:f3:8b:e2:df:13:03:3d:c6:
                    e7:fc:b3:7a:67:e5:4f:66:e0:e0:2c:81:31:bd:54:
                    46:3b:d1:05:75:52:ae:a1:18:11:74:fe:5c:28:b5:
                    b3:cf:64:1d:a6:7a:c3:af:5e:9f:3a:44:c2:2c:60:
                    c9:04:ef:ec:f0:d6:1f:36:2e:f2:92:48:6a:5b:bf:
                    da:a5:a7:94:51:be:8c:b1:d8:71:2d:b3:ca:1b:e7:
                    d9:79:d2:76:f4:e1:d7:6e:65:61:bb:f3:35:38:77:
                    52:96:ee:4c:24:46:70:3c:38:3a:a7:c8:93:44:c3:
                    d0:de:b2:3f:a9:8d:6b:c5:bb:17:7f:2f:0f:f2:ff:
                    4c:20:a0:f2:6f:a4:41:c9:77:5b:91:fb:af:04:40:
                    ad:94:12:af:17:8c:cf:d3:1c:ff:a1:c7:a4:db:16:
                    e6:cf:e1:91:04:e7:fc:f8:1f:68:e9:2f:31:ef:78:
                    d0:6d:d1:15:d1:e0:79:bc:2f:67:52:9b:55:79:e0:
                    4c:6b:6d:07:aa:33:65:7e:9e:2f:bf:d6:ad:46:1b:
                    76:99:ee:0c:21:7e:42:19:8b:53:dc:c5:45:0a:04:
                    6a:51:fb:68:90:e3:18:bd:f4:e8:5e:ef:55:e8:3c:
                    7c:b7:3d:15:ba:b7:f0:d9:c4:e7:29:72:6f:95:fb:
                    a0:66:c8:91:37:57:8a:3d:61:03
                Exponent: 65537 (0x10001)
        X509v3 extensions:
            X509v3 Key Usage: critical
                Certificate Sign, CRL Sign
            X509v3 Basic Constraints: critical
                CA:TRUE
            X509v3 Subject Key Identifier: 
                20:35:C6:CD:42:0D:59:35:CC:FF:5E:A7:6C:02:AF:26:52:92:11:5F
            X509v3 Authority Key Identifier: 
                keyid:20:35:C6:CD:42:0D:59:35:CC:FF:5E:A7:6C:02:AF:26:52:92:11:5F

    Signature Algorithm: sha256WithRSAEncryption
         1a:82:56:01:24:d4:b9:09:55:dd:c4:1e:34:d9:c6:d3:1a:58:
         8d:88:20:81:ac:32:3f:72:77:51:88:81:e1:be:75:9b:60:13:
         7a:17:41:6b:57:3c:97:52:be:e4:35:fa:ca:5f:0d:58:97:b6:
         b1:85:e0:eb:b9:94:05:c0:03:5d:f1:0f:9f:a6:53:5f:28:a4:
         69:0b:b3:83:14:42:91:1e:29:df:6f:d4:28:4f:aa:11:f3:87:
         3d:1b:69:06:da:99:8e:eb:c5:de:ae:55:b0:14:92:ea:b5:dc:
         d4:b2:2d:46:87:67:a3:c4:37:9c:2c:d5:7a:69:1c:80:f2:20:
         d6:e2:6f:99:15:f3:f8:c5:21:98:c3:48:d6:b7:75:f5:ea:22:
         3b:38:93:a2:52:ad:e6:66:09:89:ba:c1:db:3f:5f:be:fe:f3:
         61:5a:04:76:b5:eb:d1:3f:6c:c5:12:93:24:50:c3:e8:fd:bf:
         2a:f3:64:95:8c:d1:fd:f6:96:9f:63:a1:f2:a1:c8:56:b1:c8:
         ff:25:3e:88:5d:aa:d3:0c:46:d6:2f:aa:ec:0a:a7:f8:dd:55:
         c8:17:5a:f4:3f:c7:33:75:0d:fd:1a:10:04:79:a8:01:84:ee:
         92:ef:25:aa:2f:a4:da:41:28:e0:2b:0c:40:5f:4f:39:3b:ba:
         e1:a4:05:11:01:3e:74:75:2f:f7:a5:f7:e8:7f:26:58:49:4c:
         c9:7d:6e:d2:75:ee:e6:5e:33:81:47:f1:6b:3c:da:ba:89:02:
         4b:93:6d:66:ca:6c:1f:dd:2b:54:21:38:d0:99:72:56:c0:f9:
         aa:30:b8:d5:22:89:b6:58:9d:a7:e3:d4:b7:80:04:47:41:ed:
         03:be:4c:f3:1b:50:27:30:c9:c9:7f:78:ee:93:bb:36:53:89:
         77:13:62:ed:c5:b7:84:d7:f2:72:0d:98:2c:57:0b:57:0a:1c:
         ae:4f:36:73:e4:13:da:6c:e9:91:97:37:91:1d:c6:66:8b:ca:
         e8:f8:cd:14:26:59
-----BEGIN CERTIFICATE-----
MIIEmjCCAwKgAwIBAgIBAjANBgkqhkiG9w0BAQsFADBeMQswCQYDVQQGEwJOTzER
MA8GA1UECgwIR3JlZW4gQVMxJDAiBgNVBAsMG0dyZWVuIENlcnRpZmljYXRlIEF1
dGhvcml0eTEWMBQGA1UEAwwNR3JlZW4gUm9vdCBDQTAeFw0xOTAzMDcwOTUxMzJa
Fw0zMDEyMzEyMzU5NTlaMF4xCzAJBgNVBAYTAk5PMREwDwYDVQQKDAhHcmVlbiBB
UzEkMCIGA1UECwwbR3JlZW4gQ2VydGlmaWNhdGUgQXV0aG9yaXR5MRYwFAYDVQQD
DA1HcmVlbiBSb290IENBMIIBojANBgkqhkiG9w0BAQEFAAOCAY8AMIIBigKCAYEA
nbHsJx7OCWyuFKH8FH5xaB3pApX/KZniWNQRXhLpbyFh0HtL3F2QMKpkJDbGJiNU
+xLso/LFJTl6l9/Ni3Pp9qNDM+oT20I4EmxPqvxhYo9KwwgXl4s5G7xXSlSysmzy
8rtdqxkbYkwzIhuweg0D9JfBmEkWx50eGCdZItbg84vi3xMDPcbn/LN6Z+VPZuDg
LIExvVRGO9EFdVKuoRgRdP5cKLWzz2QdpnrDr16fOkTCLGDJBO/s8NYfNi7ykkhq
W7/apaeUUb6MsdhxLbPKG+fZedJ29OHXbmVhu/M1OHdSlu5MJEZwPDg6p8iTRMPQ
3rI/qY1rxbsXfy8P8v9MIKDyb6RByXdbkfuvBECtlBKvF4zP0xz/ocek2xbmz+GR
BOf8+B9o6S8x73jQbdEV0eB5vC9nUptVeeBMa20HqjNlfp4vv9atRht2me4MIX5C
GYtT3MVFCgRqUftokOMYvfToXu9V6Dx8tz0Vurfw2cTnKXJvlfugZsiRN1eKPWED
AgMBAAGjYzBhMA4GA1UdDwEB/wQEAwIBBjAPBgNVHRMBAf8EBTADAQH/MB0GA1Ud
DgQWBBQgNcbNQg1ZNcz/XqdsAq8mUpIRXzAfBgNVHSMEGDAWgBQgNcbNQg1ZNcz/
XqdsAq8mUpIRXzANBgkqhkiG9w0BAQsFAAOCAYEAGoJWASTUuQlV3cQeNNnG0xpY
jYgggawyP3J3UYiB4b51m2ATehdBa1c8l1K+5DX6yl8NWJe2sYXg67mUBcADXfEP
n6ZTXyikaQuzgxRCkR4p32/UKE+qEfOHPRtpBtqZjuvF3q5VsBSS6rXc1LItRodn
o8Q3nCzVemkcgPIg1uJvmRXz+MUhmMNI1rd19eoiOziTolKt5mYJibrB2z9fvv7z
YVoEdrXr0T9sxRKTJFDD6P2/KvNklYzR/faWn2Oh8qHIVrHI/yU+iF2q0wxG1i+q
7Aqn+N1VyBda9D/HM3UN/RoQBHmoAYTuku8lqi+k2kEo4CsMQF9POTu64aQFEQE+
dHUv96X36H8mWElMyX1u0nXu5l4zgUfxazzauokCS5NtZspsH90rVCE40JlyVsD5
qjC41SKJtlidp+PUt4AER0HtA75M8xtQJzDJyX947pO7NlOJdxNi7cW3hNfycg2Y
LFcLVwocrk82c+QT2mzpkZc3kR3GZovK6PjNFCZZ
-----END CERTIFICATE-----
