Certificate:
    Data:
        Version: 3 (0x2)
        Serial Number: 3 (0x3)
    Signature Algorithm: sha256WithRSAEncryption
        Issuer: C=NO, O=Projet PKI, OU=Projet PKI Certificate Authority, CN=Projet PKI Root CA
        Validity
            Not Before: Mar  7 09:57:28 2019 GMT
            Not After : Dec 31 23:59:59 2030 GMT
        Subject: C=NO, O=Projet PKI, OU=Projet PKI Certificate Authority, CN=Projet PKI Root CA
        Subject Public Key Info:
            Public Key Algorithm: rsaEncryption
                Public-Key: (3072 bit)
                Modulus:
                    00:d0:be:dc:3e:62:64:b4:4e:66:72:a6:f9:25:03:
                    dc:e8:7f:db:18:05:33:2b:5f:66:08:c2:3a:bb:70:
                    27:0d:87:d8:60:5a:84:d3:16:f4:b8:bf:84:f4:3a:
                    46:bd:f3:72:60:ff:85:65:d2:ee:3a:5f:d0:ef:ad:
                    71:ef:41:0d:0e:21:21:52:c5:07:b2:8e:10:0f:d6:
                    d5:8f:fc:ab:6b:74:28:3c:d8:1a:62:e4:4f:0e:c9:
                    a1:0b:ea:ac:51:36:33:46:2c:1a:80:a8:34:7a:b9:
                    cf:2a:53:9c:f9:72:cb:a9:b8:3d:c8:73:8d:2e:e6:
                    c5:76:34:91:59:61:8c:fc:6e:46:37:79:22:cd:f8:
                    5c:12:2b:07:1f:55:82:f1:46:91:88:34:ba:f5:a2:
                    12:b6:59:b5:04:20:34:4c:11:24:d1:29:e2:9b:af:
                    da:56:1a:4a:6a:c6:53:f4:cf:3f:9e:38:37:8d:db:
                    7c:4b:c5:59:23:d1:06:80:6b:2d:56:58:c4:ee:5f:
                    d2:4b:05:06:d0:22:13:9c:5b:77:3c:eb:64:26:09:
                    53:21:17:f7:ba:e0:8d:04:31:5c:2a:21:00:37:72:
                    67:e1:ea:33:be:02:b9:8d:84:e2:9f:d3:ae:72:1c:
                    38:d1:85:44:5f:be:b0:68:c9:54:5d:2c:f0:29:fc:
                    e8:1e:a5:e3:4f:04:d5:c5:38:8c:72:94:95:b9:32:
                    12:d9:87:46:65:ad:df:0f:81:f0:f1:22:8a:5b:54:
                    d4:14:57:9e:6f:93:b3:62:00:c3:b4:1c:5e:80:bb:
                    bd:3e:2a:58:92:f2:fc:9a:b8:75:96:17:aa:d9:80:
                    6e:ae:dc:b1:76:ce:e9:50:7a:f2:35:c1:17:48:15:
                    10:87:6b:38:0d:25:0a:a4:16:5c:e3:59:d3:88:36:
                    0c:9c:74:62:10:ff:64:75:f2:d6:68:8d:02:5f:f6:
                    f0:82:dc:95:51:a5:66:d4:2e:65:7e:77:48:fc:3f:
                    09:65:1b:df:08:7e:01:9a:f4:3b
                Exponent: 65537 (0x10001)
        X509v3 extensions:
            X509v3 Key Usage: critical
                Certificate Sign, CRL Sign
            X509v3 Basic Constraints: critical
                CA:TRUE
            X509v3 Subject Key Identifier: 
                36:04:C9:98:93:CC:99:14:35:32:34:FB:F4:18:D0:C7:F7:4F:FA:28
            X509v3 Authority Key Identifier: 
                keyid:36:04:C9:98:93:CC:99:14:35:32:34:FB:F4:18:D0:C7:F7:4F:FA:28

    Signature Algorithm: sha256WithRSAEncryption
         2d:6d:e3:d6:ec:be:f3:4d:53:8d:01:3a:7f:39:93:fe:07:75:
         e5:db:cf:46:79:bf:be:ee:1a:b1:dc:c9:4f:b4:87:09:fe:56:
         0d:64:48:65:76:34:46:12:db:7d:fa:63:b7:fc:4d:02:bc:fe:
         7d:09:e5:d3:e1:db:7a:14:b4:72:a3:b4:10:a9:2b:d4:10:b3:
         86:4b:6d:c6:a1:c7:96:b7:39:dc:87:e2:d7:10:71:c0:e3:94:
         33:54:a1:78:a5:b0:48:da:a7:e9:f7:b9:98:1a:6d:a9:b9:ec:
         ab:f3:05:43:57:5c:7a:5d:60:49:2f:5f:ec:45:07:be:fc:e7:
         31:26:60:19:3b:3d:b9:34:14:59:3a:15:e3:65:ca:bb:4c:75:
         11:33:79:b9:58:5b:49:c8:7c:c8:9e:49:40:bc:b7:eb:db:c2:
         96:ec:49:f2:8b:14:25:00:84:37:52:ae:36:bb:09:f5:4b:1a:
         ee:fb:8c:68:e4:06:3f:ec:d0:26:aa:ae:de:c2:9d:d2:7b:dc:
         8f:0c:cc:64:e4:db:50:0e:fd:bf:82:fc:c3:37:b4:6f:59:04:
         59:a7:e0:37:b8:ea:d8:7c:b8:93:61:e7:b6:91:f4:25:e7:34:
         74:13:14:6f:77:05:5b:55:d0:40:e0:8b:67:19:41:92:a4:c8:
         6c:0a:ca:e8:9c:74:43:da:db:58:36:99:2b:ab:f9:97:c0:4f:
         9c:0a:ce:b0:3d:27:2e:6e:e5:1a:6a:fa:4e:ed:bb:07:cc:78:
         a8:f8:7d:fb:eb:2a:53:bd:ec:71:7a:af:c3:48:61:97:c8:6a:
         20:78:60:1f:b0:b7:f9:50:46:55:ea:fb:56:03:a4:4e:6e:8c:
         47:96:9f:08:86:25:85:b7:d8:7c:a1:75:b6:a5:4c:53:fe:3d:
         12:66:25:72:18:a9:bc:1d:48:e9:74:a0:ec:42:9b:36:a1:b0:
         a5:fa:08:2d:25:6e:86:f2:12:0a:06:72:2c:64:a5:55:db:52:
         51:4a:2d:3b:f4:a3
-----BEGIN CERTIFICATE-----
MIIEsjCCAxqgAwIBAgIBAzANBgkqhkiG9w0BAQsFADBqMQswCQYDVQQGEwJOTzET
MBEGA1UECgwKUHJvamV0IFBLSTEpMCcGA1UECwwgUHJvamV0IFBLSSBDZXJ0aWZp
Y2F0ZSBBdXRob3JpdHkxGzAZBgNVBAMMElByb2pldCBQS0kgUm9vdCBDQTAeFw0x
OTAzMDcwOTU3MjhaFw0zMDEyMzEyMzU5NTlaMGoxCzAJBgNVBAYTAk5PMRMwEQYD
VQQKDApQcm9qZXQgUEtJMSkwJwYDVQQLDCBQcm9qZXQgUEtJIENlcnRpZmljYXRl
IEF1dGhvcml0eTEbMBkGA1UEAwwSUHJvamV0IFBLSSBSb290IENBMIIBojANBgkq
hkiG9w0BAQEFAAOCAY8AMIIBigKCAYEA0L7cPmJktE5mcqb5JQPc6H/bGAUzK19m
CMI6u3AnDYfYYFqE0xb0uL+E9DpGvfNyYP+FZdLuOl/Q761x70ENDiEhUsUHso4Q
D9bVj/yra3QoPNgaYuRPDsmhC+qsUTYzRiwagKg0ernPKlOc+XLLqbg9yHONLubF
djSRWWGM/G5GN3kizfhcEisHH1WC8UaRiDS69aIStlm1BCA0TBEk0Snim6/aVhpK
asZT9M8/njg3jdt8S8VZI9EGgGstVljE7l/SSwUG0CITnFt3POtkJglTIRf3uuCN
BDFcKiEAN3Jn4eozvgK5jYTin9Ouchw40YVEX76waMlUXSzwKfzoHqXjTwTVxTiM
cpSVuTIS2YdGZa3fD4Hw8SKKW1TUFFeeb5OzYgDDtBxegLu9PipYkvL8mrh1lheq
2YBurtyxds7pUHryNcEXSBUQh2s4DSUKpBZc41nTiDYMnHRiEP9kdfLWaI0CX/bw
gtyVUaVm1C5lfndI/D8JZRvfCH4BmvQ7AgMBAAGjYzBhMA4GA1UdDwEB/wQEAwIB
BjAPBgNVHRMBAf8EBTADAQH/MB0GA1UdDgQWBBQ2BMmYk8yZFDUyNPv0GNDH90/6
KDAfBgNVHSMEGDAWgBQ2BMmYk8yZFDUyNPv0GNDH90/6KDANBgkqhkiG9w0BAQsF
AAOCAYEALW3j1uy+801TjQE6fzmT/gd15dvPRnm/vu4asdzJT7SHCf5WDWRIZXY0
RhLbffpjt/xNArz+fQnl0+HbehS0cqO0EKkr1BCzhkttxqHHlrc53Ifi1xBxwOOU
M1SheKWwSNqn6fe5mBptqbnsq/MFQ1dcel1gSS9f7EUHvvznMSZgGTs9uTQUWToV
42XKu0x1ETN5uVhbSch8yJ5JQLy369vCluxJ8osUJQCEN1KuNrsJ9Usa7vuMaOQG
P+zQJqqu3sKd0nvcjwzMZOTbUA79v4L8wze0b1kEWafgN7jq2Hy4k2HntpH0Jec0
dBMUb3cFW1XQQOCLZxlBkqTIbArK6Jx0Q9rbWDaZK6v5l8BPnArOsD0nLm7lGmr6
Tu27B8x4qPh9++sqU73scXqvw0hhl8hqIHhgH7C3+VBGVer7VgOkTm6MR5afCIYl
hbfYfKF1tqVMU/49EmYlchipvB1I6XSg7EKbNqGwpfoILSVuhvISCgZyLGSlVdtS
UUotO/Sj
-----END CERTIFICATE-----
