Certificate:
    Data:
        Version: 3 (0x2)
        Serial Number: 4 (0x4)
    Signature Algorithm: sha256WithRSAEncryption
        Issuer: C=NO, O=Projet PKI, OU=Projet PKI Certificate Authority, CN=Projet PKI Root CA
        Validity
            Not Before: Mar  7 10:02:58 2019 GMT
            Not After : Dec 31 23:59:59 2030 GMT
        Subject: C=NO, O=Projet PKI, OU=Projet PKI Certificate Authority, CN=Projet PKI Root CA
        Subject Public Key Info:
            Public Key Algorithm: rsaEncryption
                Public-Key: (3072 bit)
                Modulus:
                    00:cd:5d:70:8d:90:12:ad:11:d8:07:79:3e:9c:82:
                    9a:de:e0:8c:83:cb:5c:30:af:0c:a5:17:28:5c:5f:
                    93:0c:df:cf:3b:cf:43:cb:21:93:d7:45:42:af:88:
                    b8:3b:d8:7b:2b:8a:55:45:a5:be:f2:15:c0:53:9f:
                    d8:cb:83:ce:e4:aa:3c:76:fc:56:6f:b8:30:af:80:
                    95:da:0c:df:10:1b:a2:c9:21:e4:6d:0d:d0:fb:2f:
                    ab:f3:12:5c:d5:b3:52:64:de:f5:73:8e:5d:ad:c5:
                    d9:2f:c0:3f:22:67:42:a4:ca:17:8b:55:7b:78:78:
                    f6:ff:58:5d:a6:b4:02:4c:5d:fd:ae:0f:02:d7:9e:
                    84:33:4c:07:63:a3:83:85:ab:db:ea:b3:8d:e4:cd:
                    a1:94:06:dd:d7:e2:9a:ce:7c:eb:1c:e5:8d:bc:10:
                    5a:e2:8e:64:4a:a2:c5:87:de:ac:26:94:99:21:98:
                    5b:6b:46:04:f4:e2:3c:df:b3:a4:c7:58:48:58:b1:
                    8c:6b:ce:f3:9c:72:2d:ea:ab:9b:e4:db:c0:54:e5:
                    ed:40:08:ff:99:02:e9:67:e7:af:91:40:37:e3:4b:
                    8d:e6:62:7e:b3:de:69:09:14:62:5e:5f:92:8a:26:
                    86:6f:e0:d2:30:81:26:89:3b:0b:f4:58:47:6f:db:
                    fc:74:28:e1:78:ac:75:b8:f5:29:c0:ec:52:96:fd:
                    10:1b:d9:06:1e:6d:d3:f6:72:b7:14:9a:a5:f5:42:
                    cd:da:66:05:10:21:e1:7a:19:53:de:41:32:f6:bc:
                    18:78:46:10:5f:e8:69:22:e7:0a:70:9c:f1:22:2a:
                    1c:0e:aa:44:18:11:29:2a:4d:b8:a7:05:f9:aa:f1:
                    ce:da:66:67:bb:58:a2:e1:e3:86:c6:fd:9d:f3:c0:
                    5f:01:07:26:27:73:e4:6a:81:f5:2b:7d:79:98:df:
                    03:cc:ea:d3:8d:61:2a:fb:ec:cd:38:52:17:6e:26:
                    d8:74:87:fd:b6:a2:98:cf:1b:7d
                Exponent: 65537 (0x10001)
        X509v3 extensions:
            X509v3 Key Usage: critical
                Certificate Sign, CRL Sign
            X509v3 Basic Constraints: critical
                CA:TRUE
            X509v3 Subject Key Identifier: 
                E8:86:E1:A3:EC:06:DE:77:F1:B6:F8:4C:B4:B8:D7:92:8E:19:B4:2E
            X509v3 Authority Key Identifier: 
                keyid:E8:86:E1:A3:EC:06:DE:77:F1:B6:F8:4C:B4:B8:D7:92:8E:19:B4:2E

    Signature Algorithm: sha256WithRSAEncryption
         a0:b2:d8:89:9a:0e:09:30:d6:a1:2c:23:7a:f2:d3:ee:f5:a4:
         02:ac:2a:eb:6e:9c:67:cd:51:d8:fb:31:53:61:a0:dc:76:c7:
         08:7a:27:a7:80:71:3c:7f:ea:17:71:30:cd:1c:78:0e:67:ba:
         37:18:3a:8a:8e:66:51:5a:c1:f3:6c:ba:a6:7a:f6:fe:71:94:
         2d:88:8a:f0:e3:1d:cc:aa:7c:d7:f1:57:ce:7c:e3:17:79:94:
         f5:b5:bd:83:dc:02:7f:34:65:ca:ef:6b:47:c1:eb:3a:88:e9:
         9e:6a:ef:b2:5e:ec:f5:86:8d:4f:c0:57:06:59:1a:92:98:46:
         9c:e4:98:a3:c0:35:80:21:e1:73:3e:ad:03:3b:61:c1:6c:d6:
         1a:d2:82:7a:45:e5:fb:f9:f3:89:a9:03:59:d5:34:af:c3:54:
         1f:ad:2f:77:3b:28:51:19:85:24:c6:1d:0a:2e:7d:de:8d:79:
         89:19:0f:9f:60:12:c5:e5:2c:1a:ee:0f:a6:82:87:2c:17:8a:
         c0:cf:cf:a8:f8:7c:7f:cb:91:48:b4:9f:0d:5f:42:8d:44:19:
         5c:b3:80:2f:23:14:d3:ab:5c:c0:80:99:32:b5:ff:d6:b6:f2:
         b1:b8:3c:9b:7c:ef:17:97:a7:2b:93:39:3f:89:7c:0b:e9:35:
         bc:51:33:19:b0:f9:88:2c:1d:51:1a:75:4c:6f:75:2b:a4:32:
         30:34:c8:46:d3:69:f8:a0:f4:34:c6:09:6f:05:7e:ae:91:eb:
         0e:64:bf:c8:00:43:01:3c:49:3b:87:f0:03:b0:eb:6c:f0:94:
         6e:8d:5d:94:65:e7:f5:da:31:b1:9f:a4:a1:45:99:84:31:9e:
         9a:e3:92:63:f8:2f:6f:4d:52:e8:cd:fd:86:c4:e9:7d:84:29:
         7c:3d:34:24:b6:d3:a9:ae:c1:cc:ff:e9:63:23:e9:ed:af:39:
         69:4c:8f:be:22:36:44:ea:4c:fd:01:ad:f5:20:72:2c:d0:71:
         fa:55:86:b1:0f:38
-----BEGIN CERTIFICATE-----
MIIEsjCCAxqgAwIBAgIBBDANBgkqhkiG9w0BAQsFADBqMQswCQYDVQQGEwJOTzET
MBEGA1UECgwKUHJvamV0IFBLSTEpMCcGA1UECwwgUHJvamV0IFBLSSBDZXJ0aWZp
Y2F0ZSBBdXRob3JpdHkxGzAZBgNVBAMMElByb2pldCBQS0kgUm9vdCBDQTAeFw0x
OTAzMDcxMDAyNThaFw0zMDEyMzEyMzU5NTlaMGoxCzAJBgNVBAYTAk5PMRMwEQYD
VQQKDApQcm9qZXQgUEtJMSkwJwYDVQQLDCBQcm9qZXQgUEtJIENlcnRpZmljYXRl
IEF1dGhvcml0eTEbMBkGA1UEAwwSUHJvamV0IFBLSSBSb290IENBMIIBojANBgkq
hkiG9w0BAQEFAAOCAY8AMIIBigKCAYEAzV1wjZASrRHYB3k+nIKa3uCMg8tcMK8M
pRcoXF+TDN/PO89DyyGT10VCr4i4O9h7K4pVRaW+8hXAU5/Yy4PO5Ko8dvxWb7gw
r4CV2gzfEBuiySHkbQ3Q+y+r8xJc1bNSZN71c45drcXZL8A/ImdCpMoXi1V7eHj2
/1hdprQCTF39rg8C156EM0wHY6ODhavb6rON5M2hlAbd1+KaznzrHOWNvBBa4o5k
SqLFh96sJpSZIZhba0YE9OI837Okx1hIWLGMa87znHIt6qub5NvAVOXtQAj/mQLp
Z+evkUA340uN5mJ+s95pCRRiXl+SiiaGb+DSMIEmiTsL9FhHb9v8dCjheKx1uPUp
wOxSlv0QG9kGHm3T9nK3FJql9ULN2mYFECHhehlT3kEy9rwYeEYQX+hpIucKcJzx
IiocDqpEGBEpKk24pwX5qvHO2mZnu1ii4eOGxv2d88BfAQcmJ3PkaoH1K315mN8D
zOrTjWEq++zNOFIXbibYdIf9tqKYzxt9AgMBAAGjYzBhMA4GA1UdDwEB/wQEAwIB
BjAPBgNVHRMBAf8EBTADAQH/MB0GA1UdDgQWBBTohuGj7Abed/G2+Ey0uNeSjhm0
LjAfBgNVHSMEGDAWgBTohuGj7Abed/G2+Ey0uNeSjhm0LjANBgkqhkiG9w0BAQsF
AAOCAYEAoLLYiZoOCTDWoSwjevLT7vWkAqwq626cZ81R2PsxU2Gg3HbHCHonp4Bx
PH/qF3EwzRx4Dme6Nxg6io5mUVrB82y6pnr2/nGULYiK8OMdzKp81/FXznzjF3mU
9bW9g9wCfzRlyu9rR8HrOojpnmrvsl7s9YaNT8BXBlkakphGnOSYo8A1gCHhcz6t
AzthwWzWGtKCekXl+/nziakDWdU0r8NUH60vdzsoURmFJMYdCi593o15iRkPn2AS
xeUsGu4PpoKHLBeKwM/PqPh8f8uRSLSfDV9CjUQZXLOALyMU06tcwICZMrX/1rby
sbg8m3zvF5enK5M5P4l8C+k1vFEzGbD5iCwdURp1TG91K6QyMDTIRtNp+KD0NMYJ
bwV+rpHrDmS/yABDATxJO4fwA7DrbPCUbo1dlGXn9doxsZ+koUWZhDGemuOSY/gv
b01S6M39hsTpfYQpfD00JLbTqa7BzP/pYyPp7a85aUyPviI2ROpM/QGt9SByLNBx
+lWGsQ84
-----END CERTIFICATE-----
