Certificate:
    Data:
        Version: 3 (0x2)
        Serial Number: 5 (0x5)
    Signature Algorithm: sha256WithRSAEncryption
        Issuer: C=NO, O=Projet PKI, OU=Projet PKI Certificate Authority, CN=Projet PKI Root CA
        Validity
            Not Before: Mar  7 10:04:25 2019 GMT
            Not After : Dec 31 23:59:59 2030 GMT
        Subject: C=NO, O=Projet PKI, OU=Projet PKI Certificate Authority, CN=Projet PKI Root CA
        Subject Public Key Info:
            Public Key Algorithm: rsaEncryption
                Public-Key: (3072 bit)
                Modulus:
                    00:b7:9d:83:32:bc:14:ad:ab:e2:64:b4:8b:ba:72:
                    a5:14:88:79:c7:c4:9f:10:8c:03:49:c6:ee:2b:e4:
                    15:11:70:c7:dd:d7:10:98:51:a1:5f:e8:81:88:bd:
                    e4:fa:b9:64:dc:57:2d:5f:e4:03:47:74:9b:f5:0a:
                    97:e1:84:9b:7d:41:74:6d:00:71:4d:b4:45:4f:ef:
                    5e:82:e7:40:a1:fa:1e:6d:c7:bc:73:e3:9c:4f:47:
                    8b:51:d8:97:7d:ae:2c:18:7e:c2:6b:1e:6d:cc:61:
                    db:0b:41:5d:9c:02:46:02:c5:c7:e8:c0:13:9c:02:
                    46:93:7a:45:28:04:fd:16:df:60:82:31:25:b5:24:
                    61:c6:71:95:bc:3d:07:70:41:6f:15:a2:94:40:59:
                    b5:8c:64:83:c5:a6:19:91:a6:94:3c:0a:c4:39:3e:
                    c9:6c:33:fb:c3:9f:e2:e6:28:7b:58:da:eb:24:fa:
                    9c:3b:3d:79:b7:af:e6:55:66:40:3a:83:40:3d:8d:
                    6e:22:63:46:d1:c3:46:f9:85:ad:2f:62:d1:38:30:
                    56:d7:28:55:3e:67:a1:44:81:de:4f:e1:c3:88:bb:
                    4f:8f:4f:07:07:66:0a:53:e5:63:9f:a0:e9:7a:b6:
                    18:3a:f5:7e:94:6d:e7:d6:16:b3:91:e2:e1:f6:73:
                    33:38:7a:19:ed:bc:7c:ea:65:f0:bc:02:b9:f0:24:
                    98:7a:e5:96:32:58:7a:67:a5:d4:02:52:25:11:2c:
                    13:88:5b:c8:aa:e8:df:64:e9:c2:1c:25:16:c2:42:
                    7b:05:98:9b:b6:e7:9b:54:99:d2:9d:29:a5:dc:89:
                    f6:71:85:ef:78:17:b1:ba:1b:8c:92:f5:fd:41:23:
                    7f:13:dd:af:74:5d:21:f2:ce:2f:cb:ef:a1:d6:a4:
                    4c:e5:d1:aa:bd:b6:ca:93:11:ce:db:ba:c2:64:12:
                    ae:ec:be:10:8f:e9:98:68:70:54:dd:c5:55:61:4e:
                    98:2b:b7:a7:bd:69:60:57:e9:c5
                Exponent: 65537 (0x10001)
        X509v3 extensions:
            X509v3 Key Usage: critical
                Certificate Sign, CRL Sign
            X509v3 Basic Constraints: critical
                CA:TRUE
            X509v3 Subject Key Identifier: 
                1B:2F:5B:42:71:CF:DD:50:C5:B5:E9:2D:AA:87:F0:DD:8C:FB:68:81
            X509v3 Authority Key Identifier: 
                keyid:1B:2F:5B:42:71:CF:DD:50:C5:B5:E9:2D:AA:87:F0:DD:8C:FB:68:81

    Signature Algorithm: sha256WithRSAEncryption
         5b:51:0a:4f:08:ed:fb:d3:2b:b6:35:6a:0e:45:53:9b:ef:92:
         87:16:d9:1e:3b:c3:66:74:65:31:8f:22:fc:01:61:02:1f:5e:
         44:34:6b:b4:f3:41:98:03:1b:51:3a:7e:eb:c4:92:9f:9a:66:
         c6:c8:29:0f:c9:48:4c:0a:5c:51:b0:4a:b3:f4:ef:3a:ea:a7:
         5c:5d:9d:89:90:a2:3b:92:60:ae:db:33:42:f7:c4:30:ad:6e:
         8b:b8:e9:52:68:72:4b:62:5a:eb:b6:ec:ff:2a:b6:ef:75:3b:
         93:aa:c2:ef:bd:32:a7:22:93:d8:f0:4a:b7:a0:7e:e2:65:cc:
         b8:de:f6:88:62:2c:1f:cc:3a:e3:3f:9c:68:9f:bc:53:0f:d5:
         ad:f0:ae:f5:af:89:3a:88:e1:7f:c2:a5:69:f3:a9:35:da:f8:
         93:c6:92:7d:57:1d:b0:d5:a7:25:cd:9a:c9:9b:62:e8:6c:14:
         d7:aa:da:38:8f:cb:24:d4:fb:9f:c2:db:07:e3:6b:31:d2:d7:
         2f:fb:da:b7:36:ca:6d:ca:e6:51:d4:af:e3:13:f0:bc:93:d3:
         ad:c4:cd:ef:ac:c0:32:f3:76:4c:f7:09:bf:74:c0:14:2e:a0:
         41:eb:d6:95:8f:d1:61:23:67:c4:9d:d6:bd:41:b4:21:da:6c:
         c2:07:74:55:c3:4a:42:2e:74:44:8a:63:76:90:49:33:5a:eb:
         ed:6c:53:be:ce:23:be:b0:b0:65:82:58:74:57:2f:5b:c6:2c:
         e0:64:ec:d5:c8:4b:89:d2:bd:85:de:49:d5:12:c5:1d:4c:eb:
         42:fb:40:e1:6d:5b:93:cc:31:cc:e7:db:08:33:1c:7f:cb:b7:
         86:04:d7:5c:79:5e:7a:f2:fb:d0:6e:6b:15:a1:a4:e3:68:61:
         65:54:ed:02:f0:23:fb:05:a9:b1:71:05:30:ee:a7:c9:50:13:
         4f:d2:f0:f8:20:ae:de:5b:a9:c8:3c:e4:b0:a3:b0:28:43:58:
         94:f3:80:41:63:d2
-----BEGIN CERTIFICATE-----
MIIEsjCCAxqgAwIBAgIBBTANBgkqhkiG9w0BAQsFADBqMQswCQYDVQQGEwJOTzET
MBEGA1UECgwKUHJvamV0IFBLSTEpMCcGA1UECwwgUHJvamV0IFBLSSBDZXJ0aWZp
Y2F0ZSBBdXRob3JpdHkxGzAZBgNVBAMMElByb2pldCBQS0kgUm9vdCBDQTAeFw0x
OTAzMDcxMDA0MjVaFw0zMDEyMzEyMzU5NTlaMGoxCzAJBgNVBAYTAk5PMRMwEQYD
VQQKDApQcm9qZXQgUEtJMSkwJwYDVQQLDCBQcm9qZXQgUEtJIENlcnRpZmljYXRl
IEF1dGhvcml0eTEbMBkGA1UEAwwSUHJvamV0IFBLSSBSb290IENBMIIBojANBgkq
hkiG9w0BAQEFAAOCAY8AMIIBigKCAYEAt52DMrwUraviZLSLunKlFIh5x8SfEIwD
ScbuK+QVEXDH3dcQmFGhX+iBiL3k+rlk3FctX+QDR3Sb9QqX4YSbfUF0bQBxTbRF
T+9egudAofoebce8c+OcT0eLUdiXfa4sGH7Cax5tzGHbC0FdnAJGAsXH6MATnAJG
k3pFKAT9Ft9ggjEltSRhxnGVvD0HcEFvFaKUQFm1jGSDxaYZkaaUPArEOT7JbDP7
w5/i5ih7WNrrJPqcOz15t6/mVWZAOoNAPY1uImNG0cNG+YWtL2LRODBW1yhVPmeh
RIHeT+HDiLtPj08HB2YKU+Vjn6DperYYOvV+lG3n1hazkeLh9nMzOHoZ7bx86mXw
vAK58CSYeuWWMlh6Z6XUAlIlESwTiFvIqujfZOnCHCUWwkJ7BZibtuebVJnSnSml
3In2cYXveBexuhuMkvX9QSN/E92vdF0h8s4vy++h1qRM5dGqvbbKkxHO27rCZBKu
7L4Qj+mYaHBU3cVVYU6YK7envWlgV+nFAgMBAAGjYzBhMA4GA1UdDwEB/wQEAwIB
BjAPBgNVHRMBAf8EBTADAQH/MB0GA1UdDgQWBBQbL1tCcc/dUMW16S2qh/DdjPto
gTAfBgNVHSMEGDAWgBQbL1tCcc/dUMW16S2qh/DdjPtogTANBgkqhkiG9w0BAQsF
AAOCAYEAW1EKTwjt+9MrtjVqDkVTm++ShxbZHjvDZnRlMY8i/AFhAh9eRDRrtPNB
mAMbUTp+68SSn5pmxsgpD8lITApcUbBKs/TvOuqnXF2diZCiO5JgrtszQvfEMK1u
i7jpUmhyS2Ja67bs/yq273U7k6rC770ypyKT2PBKt6B+4mXMuN72iGIsH8w64z+c
aJ+8Uw/VrfCu9a+JOojhf8KlafOpNdr4k8aSfVcdsNWnJc2ayZti6GwU16raOI/L
JNT7n8LbB+NrMdLXL/vatzbKbcrmUdSv4xPwvJPTrcTN76zAMvN2TPcJv3TAFC6g
QevWlY/RYSNnxJ3WvUG0Idpswgd0VcNKQi50RIpjdpBJM1rr7WxTvs4jvrCwZYJY
dFcvW8Ys4GTs1chLidK9hd5J1RLFHUzrQvtA4W1bk8wxzOfbCDMcf8u3hgTXXHle
evL70G5rFaGk42hhZVTtAvAj+wWpsXEFMO6nyVATT9Lw+CCu3lupyDzksKOwKENY
lPOAQWPS
-----END CERTIFICATE-----
