Certificate:
    Data:
        Version: 3 (0x2)
        Serial Number: 6 (0x6)
    Signature Algorithm: sha256WithRSAEncryption
        Issuer: C=NO, O=Projet PKI, OU=Projet PKI Certificate Authority, CN=Projet PKI Root CA
        Validity
            Not Before: Mar  7 10:05:35 2019 GMT
            Not After : Dec 31 23:59:59 2030 GMT
        Subject: C=NO, O=Projet PKI, OU=Projet PKI Certificate Authority, CN=Projet PKI Root CA
        Subject Public Key Info:
            Public Key Algorithm: rsaEncryption
                Public-Key: (3072 bit)
                Modulus:
                    00:f5:5f:82:bc:de:9d:ce:82:16:e5:d6:94:65:29:
                    ca:18:c7:60:88:8b:4e:56:b9:1c:5e:da:00:b9:87:
                    46:79:21:1c:f7:7c:75:a3:c9:96:a5:c7:4a:ee:c3:
                    66:d4:46:f7:c8:26:8a:4b:6e:b7:b2:d6:9e:a1:51:
                    59:cf:74:ef:dc:35:8f:45:8b:b0:cb:b0:91:4f:b4:
                    03:a4:60:dc:98:3e:f1:9b:ad:e1:67:99:ee:08:00:
                    28:f9:ee:6a:d6:01:5f:cd:a2:89:4f:49:31:0c:da:
                    a3:dc:14:03:49:24:20:03:ea:34:2d:30:1f:c4:3c:
                    fa:6a:ba:98:f6:08:69:7e:ad:be:47:84:99:bc:48:
                    2b:cf:08:5b:ee:7e:b7:7e:40:94:6e:d6:fc:af:3e:
                    01:52:59:a2:82:de:fe:93:b3:6e:74:b2:d3:70:30:
                    45:d2:9e:47:76:4d:b8:03:fa:86:a5:26:b7:bd:f3:
                    66:c4:42:4d:f9:c8:19:e1:19:97:71:fa:ac:50:69:
                    12:1c:b1:98:0e:92:b8:c8:df:0b:6f:4a:40:59:f5:
                    21:80:7b:b7:8a:f2:c4:3b:90:95:c5:45:ed:68:d1:
                    40:2a:4b:5d:d4:a8:4f:37:7b:46:01:35:bc:af:a4:
                    1c:3a:e7:d8:a8:e3:a1:fc:53:b1:82:fd:f0:1c:ca:
                    fe:fa:96:7f:4a:ac:8e:09:b2:68:84:97:01:c7:ea:
                    86:74:12:82:a8:91:11:78:2a:c2:9c:c6:08:d0:b5:
                    2c:f8:a3:0f:7e:12:ed:ec:35:92:a3:78:95:3c:ed:
                    5d:44:96:c2:6d:c6:2e:21:31:92:95:a1:3e:dd:bf:
                    c2:7b:90:4e:46:69:8f:9d:13:25:d8:82:f4:db:c0:
                    8a:88:46:d2:e2:16:49:64:58:b4:da:d8:b5:2a:57:
                    10:23:3e:50:60:ff:2d:89:f4:24:ac:df:9c:25:ec:
                    fe:35:2e:86:a9:f5:ed:73:a3:36:f0:6e:c5:9b:9f:
                    8a:60:80:9e:89:d9:d2:8e:e3:d1
                Exponent: 65537 (0x10001)
        X509v3 extensions:
            X509v3 Key Usage: critical
                Certificate Sign, CRL Sign
            X509v3 Basic Constraints: critical
                CA:TRUE
            X509v3 Subject Key Identifier: 
                88:F3:6E:ED:5C:AF:51:67:BE:91:8E:E8:83:BB:C7:E6:E9:F9:CC:51
            X509v3 Authority Key Identifier: 
                keyid:88:F3:6E:ED:5C:AF:51:67:BE:91:8E:E8:83:BB:C7:E6:E9:F9:CC:51

    Signature Algorithm: sha256WithRSAEncryption
         0c:88:4a:e1:d4:57:01:a6:6c:c8:25:13:42:dc:b0:76:dd:4c:
         2a:db:0b:b3:3b:75:78:3b:91:3d:1e:b0:84:60:be:aa:ee:25:
         1a:0b:b7:52:57:96:69:23:cc:63:ae:7b:86:79:64:3c:a9:04:
         4c:0d:3f:12:33:6d:85:8c:0a:fc:d4:c4:68:78:07:1a:4d:2a:
         0c:82:56:59:59:97:96:96:30:e7:e3:83:ce:fe:29:90:0a:1d:
         c0:05:42:05:e9:68:dc:7c:f3:b6:0f:4d:27:67:29:9e:a2:fe:
         47:9c:94:c3:32:76:87:59:9d:37:78:7a:84:86:ee:7e:b1:ac:
         77:f6:20:a0:1c:81:97:04:2f:71:b1:74:8e:cb:65:8a:51:a1:
         8b:b5:b7:70:01:c3:f5:b9:a1:11:2c:b7:e3:98:f5:70:81:98:
         41:8a:46:06:69:7b:e3:0b:9e:e1:8c:77:6a:94:0c:f3:47:b0:
         ad:55:72:f4:42:15:64:d1:27:32:52:16:ed:7c:93:d9:c0:6f:
         a4:fa:b9:b3:96:de:c0:cd:de:a3:ce:c3:b4:5b:88:8f:1f:cd:
         88:f5:ae:43:41:9c:55:f9:0a:58:be:17:e0:37:f5:7e:98:53:
         f5:03:43:08:05:f6:56:61:d1:a1:d1:a6:aa:8c:79:73:cc:9c:
         5c:42:10:c6:7b:0c:2a:f0:05:e4:b2:2b:0f:c0:39:02:f7:12:
         7e:2c:0c:16:9a:0c:68:00:e3:d5:76:38:57:a3:2f:32:1b:3e:
         5c:18:0f:59:ba:ea:12:66:4f:1b:1b:d1:16:74:75:1a:dd:4e:
         87:a4:e9:21:5c:7c:72:aa:91:89:df:54:3a:f6:17:2f:89:05:
         5b:ef:13:fd:d0:db:3a:07:4a:3a:ea:fb:39:e0:7e:6b:5f:53:
         db:f7:b8:d8:d9:84:51:2c:ae:56:41:7d:bb:59:63:c5:5b:91:
         b8:76:2f:cb:1b:5c:71:c3:72:fb:f3:05:12:d9:7d:3c:cc:01:
         72:a4:95:5c:3f:0e
-----BEGIN CERTIFICATE-----
MIIEsjCCAxqgAwIBAgIBBjANBgkqhkiG9w0BAQsFADBqMQswCQYDVQQGEwJOTzET
MBEGA1UECgwKUHJvamV0IFBLSTEpMCcGA1UECwwgUHJvamV0IFBLSSBDZXJ0aWZp
Y2F0ZSBBdXRob3JpdHkxGzAZBgNVBAMMElByb2pldCBQS0kgUm9vdCBDQTAeFw0x
OTAzMDcxMDA1MzVaFw0zMDEyMzEyMzU5NTlaMGoxCzAJBgNVBAYTAk5PMRMwEQYD
VQQKDApQcm9qZXQgUEtJMSkwJwYDVQQLDCBQcm9qZXQgUEtJIENlcnRpZmljYXRl
IEF1dGhvcml0eTEbMBkGA1UEAwwSUHJvamV0IFBLSSBSb290IENBMIIBojANBgkq
hkiG9w0BAQEFAAOCAY8AMIIBigKCAYEA9V+CvN6dzoIW5daUZSnKGMdgiItOVrkc
XtoAuYdGeSEc93x1o8mWpcdK7sNm1Eb3yCaKS263staeoVFZz3Tv3DWPRYuwy7CR
T7QDpGDcmD7xm63hZ5nuCAAo+e5q1gFfzaKJT0kxDNqj3BQDSSQgA+o0LTAfxDz6
arqY9ghpfq2+R4SZvEgrzwhb7n63fkCUbtb8rz4BUlmigt7+k7NudLLTcDBF0p5H
dk24A/qGpSa3vfNmxEJN+cgZ4RmXcfqsUGkSHLGYDpK4yN8Lb0pAWfUhgHu3ivLE
O5CVxUXtaNFAKktd1KhPN3tGATW8r6QcOufYqOOh/FOxgv3wHMr++pZ/SqyOCbJo
hJcBx+qGdBKCqJEReCrCnMYI0LUs+KMPfhLt7DWSo3iVPO1dRJbCbcYuITGSlaE+
3b/Ce5BORmmPnRMl2IL028CKiEbS4hZJZFi02ti1KlcQIz5QYP8tifQkrN+cJez+
NS6GqfXtc6M28G7Fm5+KYICeidnSjuPRAgMBAAGjYzBhMA4GA1UdDwEB/wQEAwIB
BjAPBgNVHRMBAf8EBTADAQH/MB0GA1UdDgQWBBSI827tXK9RZ76RjuiDu8fm6fnM
UTAfBgNVHSMEGDAWgBSI827tXK9RZ76RjuiDu8fm6fnMUTANBgkqhkiG9w0BAQsF
AAOCAYEADIhK4dRXAaZsyCUTQtywdt1MKtsLszt1eDuRPR6whGC+qu4lGgu3UleW
aSPMY657hnlkPKkETA0/EjNthYwK/NTEaHgHGk0qDIJWWVmXlpYw5+ODzv4pkAod
wAVCBelo3Hzztg9NJ2cpnqL+R5yUwzJ2h1mdN3h6hIbufrGsd/YgoByBlwQvcbF0
jstlilGhi7W3cAHD9bmhESy345j1cIGYQYpGBml74wue4Yx3apQM80ewrVVy9EIV
ZNEnMlIW7XyT2cBvpPq5s5bewM3eo87DtFuIjx/NiPWuQ0GcVfkKWL4X4Df1fphT
9QNDCAX2VmHRodGmqox5c8ycXEIQxnsMKvAF5LIrD8A5AvcSfiwMFpoMaADj1XY4
V6MvMhs+XBgPWbrqEmZPGxvRFnR1Gt1Oh6TpIVx8cqqRid9UOvYXL4kFW+8T/dDb
OgdKOur7OeB+a19T2/e42NmEUSyuVkF9u1ljxVuRuHYvyxtcccNy+/MFEtl9PMwB
cqSVXD8O
-----END CERTIFICATE-----
