Certificate:
    Data:
        Version: 3 (0x2)
        Serial Number: 8 (0x8)
    Signature Algorithm: sha256WithRSAEncryption
        Issuer: C=FR, O=Projet PKI, OU=Projet PKI Certificate Authority, CN=Projet PKI Root CA
        Validity
            Not Before: Mar  7 11:08:25 2019 GMT
            Not After : Mar  6 11:08:25 2029 GMT
        Subject: C=FR, O=Projet PKI, OU=Projet PKI Certificate Authority, CN=Projet Auth CA
        Subject Public Key Info:
            Public Key Algorithm: rsaEncryption
                Public-Key: (3072 bit)
                Modulus:
                    00:d3:65:24:12:e5:8c:65:58:a3:0d:49:b1:94:d3:
                    b7:a3:ea:fb:f9:39:4d:a3:4e:ed:d1:a4:e8:60:3a:
                    f9:8a:f0:f7:25:86:7b:a0:01:04:26:d2:70:4b:e3:
                    9a:c4:0f:50:b9:a5:0c:c7:e3:b1:bc:30:db:ae:ba:
                    cf:6a:3a:4e:cb:69:51:dd:ae:49:ef:90:05:fb:8b:
                    30:7f:a9:79:3e:d5:7f:51:8b:22:55:b7:fb:0d:67:
                    83:38:1e:ed:a0:42:91:56:bb:64:5f:5c:04:96:a5:
                    b2:98:53:7a:55:75:63:7d:39:18:5b:c2:51:aa:26:
                    58:dc:df:23:7f:06:9c:80:70:a7:69:74:30:c3:ef:
                    6e:c8:b2:69:62:63:5b:aa:bb:18:28:63:37:cd:39:
                    85:e5:31:d4:ad:c6:dc:81:e2:8f:95:2c:be:47:83:
                    2b:24:93:89:42:fa:35:2a:99:b2:49:66:14:dc:dc:
                    02:f2:62:30:e8:d2:62:94:1a:09:33:42:3a:2f:ab:
                    6d:b6:64:33:67:46:5e:13:e4:5b:a4:ae:63:b9:0e:
                    d1:48:6c:0b:5c:0f:a4:01:9c:26:89:cf:53:2c:25:
                    81:8b:7f:77:70:87:fc:b2:ce:3d:7c:94:c7:82:04:
                    98:b5:47:03:7a:27:10:4f:f4:b0:f8:95:ac:2f:56:
                    cb:43:d5:af:5b:6c:e7:a2:34:18:66:93:ac:93:bd:
                    b5:b8:3c:1b:3b:ea:b2:aa:86:93:ec:42:f1:7c:8c:
                    5d:a6:03:1e:ff:79:86:7c:4e:6f:91:6c:a3:dd:02:
                    57:be:02:31:c9:8b:76:4c:5b:51:7f:60:9f:28:7f:
                    a6:4d:8a:49:df:74:6d:b6:d0:97:35:15:80:ae:97:
                    67:bf:51:98:fc:45:5c:76:73:67:aa:39:27:b2:3e:
                    f0:90:c5:67:9c:20:49:81:27:dc:0c:a2:77:e7:18:
                    b4:fb:b1:17:f3:44:21:d7:0d:08:40:81:03:05:7b:
                    c0:78:da:d1:e8:0b:3b:71:83:81
                Exponent: 65537 (0x10001)
        X509v3 extensions:
            X509v3 Key Usage: critical
                Certificate Sign, CRL Sign
            X509v3 Basic Constraints: critical
                CA:TRUE, pathlen:0
            X509v3 Subject Key Identifier: 
                2C:EE:17:44:8E:D3:03:27:A7:72:D2:E0:ED:F3:7C:BC:4A:0F:77:30
            X509v3 Authority Key Identifier: 
                keyid:AA:B7:CF:6C:2C:D7:77:46:86:71:D2:6A:21:F5:D8:C7:C7:C7:3D:31

            Authority Information Access: 
                CA Issuers - URI:https://herrenschmidt.pro/ca/root-ca.cer

            X509v3 CRL Distribution Points: 

                Full Name:
                  URI:https://herrenschmidt.pro/ca/root-ca.crl

    Signature Algorithm: sha256WithRSAEncryption
         9b:36:29:f5:62:7e:18:e0:b7:62:7a:df:bc:eb:83:8b:cd:2c:
         77:9a:ae:86:45:24:9b:54:ad:9b:f0:32:ec:bd:83:18:bc:68:
         c4:51:95:a8:9d:6b:72:d0:42:52:2a:d9:63:0a:ea:60:b8:d6:
         f8:f3:58:c2:a3:4a:45:42:74:7c:b0:41:23:bc:98:96:54:42:
         93:32:55:0d:b9:9a:e8:65:56:0d:00:ff:29:06:09:7f:5e:57:
         2d:b3:b5:39:92:3a:9b:40:bb:27:28:c2:c7:f6:50:65:9c:fb:
         59:5d:80:41:4e:a5:66:3d:d0:78:3e:ac:cb:5e:b6:24:af:87:
         25:d2:15:27:d1:ce:29:19:3b:b7:53:10:68:6d:8b:df:41:82:
         7b:c7:ae:99:ae:6a:62:4b:db:8d:54:f7:ad:dd:35:28:b3:73:
         7a:0e:c9:d9:82:7a:94:7a:63:1b:ce:83:23:59:12:8c:c7:64:
         21:1f:6a:40:12:05:0e:18:be:fa:7f:5b:bd:36:45:80:ca:e0:
         ce:e4:b3:bf:b3:05:0c:03:6f:a0:23:9b:55:1a:35:7f:a0:42:
         66:2b:9a:ed:3a:01:fb:4d:db:22:e2:46:b0:bc:2c:5b:dd:47:
         b8:ce:9e:df:7d:4e:5e:d9:42:75:b3:84:75:93:8c:b1:85:36:
         08:c8:5b:af:f3:3f:13:8d:b7:4b:64:08:e0:6b:c3:ba:20:ac:
         90:53:49:7e:c1:1c:7c:84:a4:fd:d0:c7:18:98:57:6a:ce:ed:
         dd:77:fe:05:07:b3:18:62:43:e7:20:31:4f:db:52:3e:a4:be:
         a1:83:88:bb:8f:a9:fe:f6:5f:c4:7d:5e:12:c2:90:ec:ef:d7:
         f3:1b:15:27:8e:2b:90:35:28:7a:e0:e1:e6:23:97:fd:49:62:
         f3:02:ea:91:05:e3:34:41:49:53:67:c2:dc:6b:99:67:5e:04:
         62:8d:7e:6b:5b:10:e6:1a:93:a6:a4:98:ad:f6:bc:63:6f:c1:
         2d:e6:ec:c0:95:69
-----BEGIN CERTIFICATE-----
MIIFNDCCA5ygAwIBAgIBCDANBgkqhkiG9w0BAQsFADBqMQswCQYDVQQGEwJGUjET
MBEGA1UECgwKUHJvamV0IFBLSTEpMCcGA1UECwwgUHJvamV0IFBLSSBDZXJ0aWZp
Y2F0ZSBBdXRob3JpdHkxGzAZBgNVBAMMElByb2pldCBQS0kgUm9vdCBDQTAeFw0x
OTAzMDcxMTA4MjVaFw0yOTAzMDYxMTA4MjVaMGYxCzAJBgNVBAYTAkZSMRMwEQYD
VQQKDApQcm9qZXQgUEtJMSkwJwYDVQQLDCBQcm9qZXQgUEtJIENlcnRpZmljYXRl
IEF1dGhvcml0eTEXMBUGA1UEAwwOUHJvamV0IEF1dGggQ0EwggGiMA0GCSqGSIb3
DQEBAQUAA4IBjwAwggGKAoIBgQDTZSQS5YxlWKMNSbGU07ej6vv5OU2jTu3RpOhg
OvmK8PclhnugAQQm0nBL45rED1C5pQzH47G8MNuuus9qOk7LaVHdrknvkAX7izB/
qXk+1X9RiyJVt/sNZ4M4Hu2gQpFWu2RfXASWpbKYU3pVdWN9ORhbwlGqJljc3yN/
BpyAcKdpdDDD727IsmliY1uquxgoYzfNOYXlMdStxtyB4o+VLL5Hgyskk4lC+jUq
mbJJZhTc3ALyYjDo0mKUGgkzQjovq222ZDNnRl4T5FukrmO5DtFIbAtcD6QBnCaJ
z1MsJYGLf3dwh/yyzj18lMeCBJi1RwN6JxBP9LD4lawvVstD1a9bbOeiNBhmk6yT
vbW4PBs76rKqhpPsQvF8jF2mAx7/eYZ8Tm+RbKPdAle+AjHJi3ZMW1F/YJ8of6ZN
iknfdG220Jc1FYCul2e/UZj8RVx2c2eqOSeyPvCQxWecIEmBJ9wMonfnGLT7sRfz
RCHXDQhAgQMFe8B42tHoCztxg4ECAwEAAaOB6DCB5TAOBgNVHQ8BAf8EBAMCAQYw
EgYDVR0TAQH/BAgwBgEB/wIBADAdBgNVHQ4EFgQULO4XRI7TAyenctLg7fN8vEoP
dzAwHwYDVR0jBBgwFoAUqrfPbCzXd0aGcdJqIfXYx8fHPTEwRAYIKwYBBQUHAQEE
ODA2MDQGCCsGAQUFBzAChihodHRwczovL2hlcnJlbnNjaG1pZHQucHJvL2NhL3Jv
b3QtY2EuY2VyMDkGA1UdHwQyMDAwLqAsoCqGKGh0dHBzOi8vaGVycmVuc2NobWlk
dC5wcm8vY2Evcm9vdC1jYS5jcmwwDQYJKoZIhvcNAQELBQADggGBAJs2KfVifhjg
t2J637zrg4vNLHearoZFJJtUrZvwMuy9gxi8aMRRlaida3LQQlIq2WMK6mC41vjz
WMKjSkVCdHywQSO8mJZUQpMyVQ25muhlVg0A/ykGCX9eVy2ztTmSOptAuycowsf2
UGWc+1ldgEFOpWY90Hg+rMtetiSvhyXSFSfRzikZO7dTEGhti99BgnvHrpmuamJL
241U963dNSizc3oOydmCepR6YxvOgyNZEozHZCEfakASBQ4Yvvp/W702RYDK4M7k
s7+zBQwDb6Ajm1UaNX+gQmYrmu06AftN2yLiRrC8LFvdR7jOnt99Tl7ZQnWzhHWT
jLGFNgjIW6/zPxONt0tkCOBrw7ogrJBTSX7BHHyEpP3QxxiYV2rO7d13/gUHsxhi
Q+cgMU/bUj6kvqGDiLuPqf72X8R9XhLCkOzv1/MbFSeOK5A1KHrg4eYjl/1JYvMC
6pEF4zRBSVNnwtxrmWdeBGKNfmtbEOYak6akmK32vGNvwS3m7MCVaQ==
-----END CERTIFICATE-----
