Certificate:
    Data:
        Version: 3 (0x2)
        Serial Number: 9 (0x9)
    Signature Algorithm: sha256WithRSAEncryption
        Issuer: C=FR, O=Projet PKI, OU=Projet PKI Certificate Authority, CN=Projet PKI Root CA
        Validity
            Not Before: Mar  7 11:10:46 2019 GMT
            Not After : Dec 31 23:59:59 2030 GMT
        Subject: C=FR, O=Projet PKI, OU=Projet PKI Certificate Authority, CN=Projet Auth CA
        Subject Public Key Info:
            Public Key Algorithm: rsaEncryption
                Public-Key: (3072 bit)
                Modulus:
                    00:bd:35:e3:2d:fc:bc:e3:43:6a:54:17:23:9b:a6:
                    d1:b8:98:93:19:27:41:ce:9c:c2:9c:6b:f6:8b:25:
                    b1:e8:3d:29:2a:20:ec:38:fa:40:94:02:fe:1c:58:
                    bf:f6:8b:c6:67:52:fa:b0:b6:d1:83:1f:86:04:65:
                    ff:45:c3:0c:b6:35:88:3f:67:8f:4a:e4:dd:d9:9f:
                    39:fc:5c:97:25:03:db:33:e3:f3:00:db:b8:f2:34:
                    c0:18:45:60:42:3e:14:c4:1e:44:a7:55:de:1e:c0:
                    01:a4:84:b2:8b:ca:dc:39:7d:ad:76:f1:14:49:6d:
                    ab:45:7d:46:ea:2c:ee:24:c6:cd:69:79:4c:3b:f0:
                    48:41:96:d1:96:33:20:00:22:6d:62:4d:e0:14:21:
                    fa:b3:73:d0:dc:2b:07:85:3c:32:d8:77:7a:99:0a:
                    73:47:1a:8b:ea:ff:4e:c7:22:cb:5f:58:81:3b:03:
                    c3:7a:6c:69:08:4a:27:c8:7e:ee:81:f9:6c:89:7d:
                    ae:8e:2a:e4:3d:c3:f7:d9:bd:b4:1b:db:69:f3:0a:
                    02:09:43:4c:86:f8:ab:eb:7a:0f:04:2a:79:bd:37:
                    df:0d:ea:47:1d:0b:14:87:da:48:9a:98:ae:cb:d5:
                    ad:c9:ef:b5:b3:24:3f:7f:22:1f:3a:01:54:c8:02:
                    7a:92:f8:27:18:27:1e:71:be:37:91:7d:21:06:c0:
                    39:81:7f:4f:07:ee:bf:b6:92:d7:68:63:19:d5:db:
                    30:88:df:0b:85:f9:1e:63:68:4a:0f:85:9d:9a:d1:
                    9e:d8:72:2e:c5:dc:60:35:ca:07:d1:c4:72:c6:c7:
                    f8:19:7d:03:c7:f3:47:d3:58:65:6c:9a:d3:bb:d9:
                    43:b8:df:bc:d6:02:79:0e:bf:39:4d:ef:fc:4d:fe:
                    ef:65:07:61:34:21:6a:8e:3e:ff:9f:c7:09:d2:1f:
                    73:3c:39:52:44:99:24:1c:8c:a8:c8:27:12:33:33:
                    f0:b1:5d:f5:4b:46:53:75:ad:03
                Exponent: 65537 (0x10001)
        X509v3 extensions:
            X509v3 Key Usage: critical
                Certificate Sign, CRL Sign
            X509v3 Basic Constraints: critical
                CA:TRUE, pathlen:0
            X509v3 Subject Key Identifier: 
                9A:37:EB:BA:DB:73:03:03:6C:EF:70:88:A3:4D:F1:DF:A8:80:D5:98
            X509v3 Authority Key Identifier: 
                keyid:AA:B7:CF:6C:2C:D7:77:46:86:71:D2:6A:21:F5:D8:C7:C7:C7:3D:31

            Authority Information Access: 
                CA Issuers - URI:https://herrenschmidt.pro/ca/root-ca.cer

            X509v3 CRL Distribution Points: 

                Full Name:
                  URI:https://herrenschmidt.pro/ca/root-ca.crl

    Signature Algorithm: sha256WithRSAEncryption
         0f:cb:ad:fa:ba:d8:e7:d6:5d:33:12:e8:2f:af:f2:de:4a:de:
         9c:a4:59:64:da:79:19:0a:83:fa:5b:95:04:c0:dd:4f:1b:11:
         e2:59:c8:e9:9c:ff:89:6d:ff:99:25:0c:6e:88:15:9d:68:94:
         86:39:14:6c:a6:c2:d8:cf:1e:c2:86:d9:63:30:2a:2c:12:0e:
         ee:92:39:6c:e4:b8:7b:2b:95:8f:07:cf:e4:f9:07:b8:b6:02:
         99:f5:93:17:c8:3c:c2:38:cd:59:ef:82:b1:f7:aa:90:4c:8c:
         55:13:6f:50:71:c4:20:1a:2a:c2:01:6b:f1:fc:6e:67:44:1f:
         6b:16:4b:23:c3:bd:68:3c:05:f7:d1:a0:01:25:89:b7:4c:cf:
         ea:a4:f5:67:0b:a8:6e:cf:c0:7a:43:06:e2:01:24:70:28:b2:
         f9:c6:22:a9:14:70:9b:e4:f4:43:12:ce:d1:c8:db:b3:0b:a6:
         13:07:8e:e9:42:72:8d:10:cc:9b:f4:45:3e:51:b9:9e:c3:3d:
         09:aa:3b:22:4a:e6:ea:22:0d:ab:8d:26:a0:b2:37:a4:69:24:
         13:f6:8b:fe:3c:ae:89:18:8e:53:ea:36:30:f4:f1:5d:4d:18:
         76:de:ea:c6:5c:88:ed:6c:9c:5e:41:16:88:32:88:12:31:ae:
         be:56:7f:c6:00:44:d9:3d:f2:60:53:2c:f8:e9:bb:e5:cc:2e:
         72:80:74:e0:ef:0f:e8:c0:68:47:2f:c2:8a:84:3f:6d:b1:11:
         c0:5d:8f:b6:92:5d:93:8d:ae:c9:a4:22:4a:05:7e:65:63:0e:
         47:d7:cb:bd:19:af:c7:d2:68:e1:0b:49:de:10:85:aa:23:d2:
         c6:e0:2a:0b:07:46:7b:68:78:a9:c7:88:8c:c9:68:d5:3d:d1:
         68:72:31:6f:77:26:6e:06:28:94:78:97:9c:e8:35:5f:39:b4:
         1b:60:9d:b9:3a:3c:1f:64:ff:b3:ca:57:41:47:9e:64:c4:8a:
         ad:78:cf:fa:be:7f
-----BEGIN CERTIFICATE-----
MIIFNDCCA5ygAwIBAgIBCTANBgkqhkiG9w0BAQsFADBqMQswCQYDVQQGEwJGUjET
MBEGA1UECgwKUHJvamV0IFBLSTEpMCcGA1UECwwgUHJvamV0IFBLSSBDZXJ0aWZp
Y2F0ZSBBdXRob3JpdHkxGzAZBgNVBAMMElByb2pldCBQS0kgUm9vdCBDQTAeFw0x
OTAzMDcxMTEwNDZaFw0zMDEyMzEyMzU5NTlaMGYxCzAJBgNVBAYTAkZSMRMwEQYD
VQQKDApQcm9qZXQgUEtJMSkwJwYDVQQLDCBQcm9qZXQgUEtJIENlcnRpZmljYXRl
IEF1dGhvcml0eTEXMBUGA1UEAwwOUHJvamV0IEF1dGggQ0EwggGiMA0GCSqGSIb3
DQEBAQUAA4IBjwAwggGKAoIBgQC9NeMt/LzjQ2pUFyObptG4mJMZJ0HOnMKca/aL
JbHoPSkqIOw4+kCUAv4cWL/2i8ZnUvqwttGDH4YEZf9Fwwy2NYg/Z49K5N3Znzn8
XJclA9sz4/MA27jyNMAYRWBCPhTEHkSnVd4ewAGkhLKLytw5fa128RRJbatFfUbq
LO4kxs1peUw78EhBltGWMyAAIm1iTeAUIfqzc9DcKweFPDLYd3qZCnNHGovq/07H
IstfWIE7A8N6bGkISifIfu6B+WyJfa6OKuQ9w/fZvbQb22nzCgIJQ0yG+Kvreg8E
Knm9N98N6kcdCxSH2kiamK7L1a3J77WzJD9/Ih86AVTIAnqS+CcYJx5xvjeRfSEG
wDmBf08H7r+2ktdoYxnV2zCI3wuF+R5jaEoPhZ2a0Z7Yci7F3GA1ygfRxHLGx/gZ
fQPH80fTWGVsmtO72UO437zWAnkOvzlN7/xN/u9lB2E0IWqOPv+fxwnSH3M8OVJE
mSQcjKjIJxIzM/CxXfVLRlN1rQMCAwEAAaOB6DCB5TAOBgNVHQ8BAf8EBAMCAQYw
EgYDVR0TAQH/BAgwBgEB/wIBADAdBgNVHQ4EFgQUmjfruttzAwNs73CIo03x36iA
1ZgwHwYDVR0jBBgwFoAUqrfPbCzXd0aGcdJqIfXYx8fHPTEwRAYIKwYBBQUHAQEE
ODA2MDQGCCsGAQUFBzAChihodHRwczovL2hlcnJlbnNjaG1pZHQucHJvL2NhL3Jv
b3QtY2EuY2VyMDkGA1UdHwQyMDAwLqAsoCqGKGh0dHBzOi8vaGVycmVuc2NobWlk
dC5wcm8vY2Evcm9vdC1jYS5jcmwwDQYJKoZIhvcNAQELBQADggGBAA/Lrfq62OfW
XTMS6C+v8t5K3pykWWTaeRkKg/pblQTA3U8bEeJZyOmc/4lt/5klDG6IFZ1olIY5
FGymwtjPHsKG2WMwKiwSDu6SOWzkuHsrlY8Hz+T5B7i2Apn1kxfIPMI4zVnvgrH3
qpBMjFUTb1BxxCAaKsIBa/H8bmdEH2sWSyPDvWg8BffRoAElibdMz+qk9WcLqG7P
wHpDBuIBJHAosvnGIqkUcJvk9EMSztHI27MLphMHjulCco0QzJv0RT5RuZ7DPQmq
OyJK5uoiDauNJqCyN6RpJBP2i/48rokYjlPqNjD08V1NGHbe6sZciO1snF5BFogy
iBIxrr5Wf8YARNk98mBTLPjpu+XMLnKAdODvD+jAaEcvwoqEP22xEcBdj7aSXZON
rsmkIkoFfmVjDkfXy70Zr8fSaOELSd4Qhaoj0sbgKgsHRntoeKnHiIzJaNU90Why
MW93Jm4GKJR4l5zoNV85tBtgnbk6PB9k/7PKV0FHnmTEiq14z/q+fw==
-----END CERTIFICATE-----
