Certificate:
    Data:
        Version: 3 (0x2)
        Serial Number: 12 (0xc)
    Signature Algorithm: sha256WithRSAEncryption
        Issuer: C=FR, O=Projet PKI, OU=Projet PKI Certificate Authority, CN=Projet PKI Root CA
        Validity
            Not Before: Mar  8 08:28:30 2019 GMT
            Not After : Dec 31 23:59:59 2030 GMT
        Subject: C=FR, O=Projet PKI, OU=Projet PKI Certificate Authority, CN=Projet PKI Auth CA
        Subject Public Key Info:
            Public Key Algorithm: rsaEncryption
                Public-Key: (3072 bit)
                Modulus:
                    00:c1:21:df:05:4c:a4:bd:f1:bb:ab:3c:ff:49:5c:
                    79:97:c4:4e:14:a0:64:d9:8b:95:c7:69:ba:1c:68:
                    15:34:b4:da:56:2d:f6:65:56:5e:46:14:da:cc:c2:
                    8b:6c:eb:f3:aa:55:12:d6:48:02:26:a1:57:dc:8e:
                    f8:4c:19:ea:a1:b3:fd:48:5c:79:2e:0a:50:9a:b4:
                    2c:a5:49:45:7d:a8:6e:c8:a4:69:61:3c:81:97:f8:
                    85:5e:22:df:ba:b7:aa:78:2d:86:3b:54:3b:ea:d4:
                    5d:f8:6e:22:fb:c1:c8:01:a7:4d:fe:f7:46:aa:51:
                    30:d6:87:19:bc:59:e7:95:86:29:7c:bd:a2:f0:74:
                    16:ca:32:88:19:87:88:a9:57:b3:3c:af:70:1e:8d:
                    87:34:78:36:f5:a4:4e:a0:7e:7e:d3:cf:05:bd:c7:
                    4d:03:59:54:4f:c9:6d:c3:89:59:ab:64:7a:fe:49:
                    df:ed:d4:56:e7:20:73:49:72:14:18:68:0a:ab:1c:
                    84:c0:75:cf:1d:17:4a:78:c0:b6:a2:d6:cf:0b:a3:
                    36:b2:ab:e4:7d:af:78:8c:2c:d7:ed:03:cd:f3:c6:
                    2f:6d:a5:45:93:e2:c3:0c:6d:99:ba:99:14:66:cd:
                    dc:bd:e7:d2:f0:a5:aa:92:f3:09:8e:5e:6d:7a:60:
                    b6:76:ac:de:7d:1f:d0:b2:64:d1:a7:7f:5c:c9:63:
                    d0:36:7d:3e:0b:61:19:72:94:8f:b9:ee:f6:c6:08:
                    3d:02:38:b8:76:06:42:1e:a6:f6:52:5e:20:db:fa:
                    c7:37:e9:db:a9:6c:0f:6a:a6:65:7b:11:d4:59:38:
                    4f:d5:16:76:e3:2a:0b:3f:59:d9:20:07:0a:63:06:
                    b8:d6:34:5f:8e:39:a6:be:b4:5f:29:09:c3:24:16:
                    3e:56:23:8f:1d:b3:75:9c:d2:60:d4:70:a1:77:e0:
                    a1:83:58:3a:bf:67:8d:68:9e:cd:fc:a7:34:78:95:
                    f4:88:95:f5:bc:96:68:41:07:af
                Exponent: 65537 (0x10001)
        X509v3 extensions:
            X509v3 Key Usage: critical
                Certificate Sign, CRL Sign
            X509v3 Basic Constraints: critical
                CA:TRUE, pathlen:0
            X509v3 Subject Key Identifier: 
                BE:B1:3D:58:AD:A3:FF:8B:B8:1B:73:ED:8D:22:88:9D:30:C2:AF:13
            X509v3 Authority Key Identifier: 
                keyid:AA:B7:CF:6C:2C:D7:77:46:86:71:D2:6A:21:F5:D8:C7:C7:C7:3D:31

            Authority Information Access: 
                CA Issuers - URI:https://herrenschmidt.pro/ca/root-ca.cer

            X509v3 CRL Distribution Points: 

                Full Name:
                  URI:https://herrenschmidt.pro/ca/root-ca.crl

    Signature Algorithm: sha256WithRSAEncryption
         9e:22:d3:c4:28:21:f6:92:cb:ff:1a:d0:94:7c:82:2a:32:d5:
         a5:74:7c:3c:7b:49:c1:e0:91:50:55:13:71:8d:94:9e:b3:66:
         43:b3:e1:9c:f7:23:2a:34:48:35:68:83:97:77:90:09:72:d8:
         91:58:62:80:35:c3:ff:a5:0b:0b:85:bd:8d:7a:38:f8:55:fd:
         62:20:4d:42:66:5e:26:27:33:79:c6:fd:be:61:c1:6e:66:11:
         49:bf:b2:36:09:8b:23:e1:74:03:6b:0c:de:53:53:11:ac:89:
         39:9e:08:9c:d4:1f:a3:85:5c:d2:bc:f7:90:cf:29:98:6c:56:
         75:c2:b4:27:bc:c2:2d:64:56:b9:84:31:96:5f:27:2a:71:91:
         15:0d:8e:ad:c3:20:f5:5f:bf:00:14:60:5c:28:b1:ee:5d:8a:
         f1:1e:bc:0e:a0:f3:09:43:ad:cd:2e:aa:b7:ba:05:8f:b0:19:
         6a:d2:55:c5:cb:52:eb:08:bc:7c:81:0e:37:9d:94:4c:f5:0b:
         15:e1:c0:66:32:99:27:ad:91:7a:f4:75:c9:28:37:71:a0:98:
         01:7d:70:8f:fa:66:0a:59:ad:32:66:95:f8:19:91:cd:76:05:
         bd:47:7d:da:22:df:29:46:23:bb:4b:26:5f:e4:30:11:91:28:
         c3:12:00:24:37:80:3b:1c:7b:0c:83:d0:fe:5a:4a:8e:80:e5:
         76:5b:3f:14:d8:7f:ef:cd:82:4f:04:67:af:dd:70:ac:b0:aa:
         07:f9:30:40:9d:ca:31:e7:c5:cd:f1:7b:73:81:24:aa:ca:a5:
         13:40:2a:53:c7:94:dd:5f:36:aa:10:d5:da:24:4b:03:33:f5:
         4b:d3:76:ff:22:13:08:77:20:0e:31:71:c0:d0:f4:61:31:12:
         a4:db:46:7b:f6:36:b6:b6:25:3c:47:41:8c:32:da:fb:96:fb:
         f7:59:75:6c:c7:70:70:0b:05:ca:1c:36:cc:40:5c:69:9a:37:
         e3:4d:9f:e4:f2:47
-----BEGIN CERTIFICATE-----
MIIFODCCA6CgAwIBAgIBDDANBgkqhkiG9w0BAQsFADBqMQswCQYDVQQGEwJGUjET
MBEGA1UECgwKUHJvamV0IFBLSTEpMCcGA1UECwwgUHJvamV0IFBLSSBDZXJ0aWZp
Y2F0ZSBBdXRob3JpdHkxGzAZBgNVBAMMElByb2pldCBQS0kgUm9vdCBDQTAeFw0x
OTAzMDgwODI4MzBaFw0zMDEyMzEyMzU5NTlaMGoxCzAJBgNVBAYTAkZSMRMwEQYD
VQQKDApQcm9qZXQgUEtJMSkwJwYDVQQLDCBQcm9qZXQgUEtJIENlcnRpZmljYXRl
IEF1dGhvcml0eTEbMBkGA1UEAwwSUHJvamV0IFBLSSBBdXRoIENBMIIBojANBgkq
hkiG9w0BAQEFAAOCAY8AMIIBigKCAYEAwSHfBUykvfG7qzz/SVx5l8ROFKBk2YuV
x2m6HGgVNLTaVi32ZVZeRhTazMKLbOvzqlUS1kgCJqFX3I74TBnqobP9SFx5LgpQ
mrQspUlFfahuyKRpYTyBl/iFXiLfureqeC2GO1Q76tRd+G4i+8HIAadN/vdGqlEw
1ocZvFnnlYYpfL2i8HQWyjKIGYeIqVezPK9wHo2HNHg29aROoH5+088FvcdNA1lU
T8ltw4lZq2R6/knf7dRW5yBzSXIUGGgKqxyEwHXPHRdKeMC2otbPC6M2sqvkfa94
jCzX7QPN88YvbaVFk+LDDG2ZupkUZs3cvefS8KWqkvMJjl5temC2dqzefR/QsmTR
p39cyWPQNn0+C2EZcpSPue72xgg9Aji4dgZCHqb2Ul4g2/rHN+nbqWwPaqZlexHU
WThP1RZ24yoLP1nZIAcKYwa41jRfjjmmvrRfKQnDJBY+ViOPHbN1nNJg1HChd+Ch
g1g6v2eNaJ7N/Kc0eJX0iJX1vJZoQQevAgMBAAGjgegwgeUwDgYDVR0PAQH/BAQD
AgEGMBIGA1UdEwEB/wQIMAYBAf8CAQAwHQYDVR0OBBYEFL6xPVito/+LuBtz7Y0i
iJ0wwq8TMB8GA1UdIwQYMBaAFKq3z2ws13dGhnHSaiH12MfHxz0xMEQGCCsGAQUF
BwEBBDgwNjA0BggrBgEFBQcwAoYoaHR0cHM6Ly9oZXJyZW5zY2htaWR0LnByby9j
YS9yb290LWNhLmNlcjA5BgNVHR8EMjAwMC6gLKAqhihodHRwczovL2hlcnJlbnNj
aG1pZHQucHJvL2NhL3Jvb3QtY2EuY3JsMA0GCSqGSIb3DQEBCwUAA4IBgQCeItPE
KCH2ksv/GtCUfIIqMtWldHw8e0nB4JFQVRNxjZSes2ZDs+Gc9yMqNEg1aIOXd5AJ
ctiRWGKANcP/pQsLhb2Nejj4Vf1iIE1CZl4mJzN5xv2+YcFuZhFJv7I2CYsj4XQD
awzeU1MRrIk5ngic1B+jhVzSvPeQzymYbFZ1wrQnvMItZFa5hDGWXycqcZEVDY6t
wyD1X78AFGBcKLHuXYrxHrwOoPMJQ63NLqq3ugWPsBlq0lXFy1LrCLx8gQ43nZRM
9QsV4cBmMpknrZF69HXJKDdxoJgBfXCP+mYKWa0yZpX4GZHNdgW9R33aIt8pRiO7
SyZf5DARkSjDEgAkN4A7HHsMg9D+WkqOgOV2Wz8U2H/vzYJPBGev3XCssKoH+TBA
ncox58XN8XtzgSSqyqUTQCpTx5TdXzaqENXaJEsDM/VL03b/IhMIdyAOMXHA0PRh
MRKk20Z79ja2tiU8R0GMMtr7lvv3WXVsx3BwCwXKHDbMQFxpmjfjTZ/k8kc=
-----END CERTIFICATE-----
