Certificate:
    Data:
        Version: 3 (0x2)
        Serial Number: 1 (0x1)
    Signature Algorithm: sha256WithRSAEncryption
        Issuer: C=FR, O=Projet PKI, OU=Projet PKI Certificate Authority, CN=Projet PKI Encrypt CA
        Validity
            Not Before: Mar  7 15:18:52 2019 GMT
            Not After : Mar  6 15:18:52 2021 GMT
        Subject: C=FR, ST=VAR, L=TOULON, O=Projet PKI, OU=Projet PKI Certificate Authority, CN=Projet PKI Root CA
        Subject Public Key Info:
            Public Key Algorithm: rsaEncryption
                Public-Key: (3072 bit)
                Modulus:
                    00:d8:e1:04:01:e2:33:f7:42:84:2e:27:5d:99:ec:
                    96:82:8f:9f:97:27:a5:31:e9:b8:17:a2:76:eb:03:
                    49:1b:0d:8a:5d:3f:a4:fa:c6:b5:ed:d3:dc:5d:f8:
                    cb:7a:5f:4b:4a:2e:b9:cf:a6:f9:d2:3f:93:31:39:
                    be:4c:af:ed:09:cc:22:79:59:51:cc:38:4d:89:72:
                    f1:d0:82:1c:1d:0f:dc:ff:0e:90:b1:b9:ce:ae:7c:
                    fe:d0:9e:8b:fb:61:07:d7:4c:46:6b:7a:16:50:a0:
                    8c:c1:a1:4a:8e:fc:21:be:ae:3b:e3:ce:a4:99:19:
                    43:23:42:6f:87:b4:87:0b:9f:cc:1f:f1:b8:1b:23:
                    ef:d5:93:64:03:44:6e:cd:d1:94:b6:87:8e:cb:d4:
                    8d:65:3b:ec:79:18:ea:16:ef:96:97:46:4f:7d:b2:
                    91:af:60:41:bb:25:a5:f9:f6:42:0e:83:14:b8:a2:
                    ad:ea:ab:3e:c9:aa:cd:97:45:3b:66:33:da:5e:ba:
                    b2:d6:e9:0d:7b:0c:00:66:b8:4c:5a:f9:95:65:33:
                    89:0a:72:44:c1:d5:d9:42:da:50:37:23:a5:b0:0b:
                    9e:bf:f8:00:71:f2:27:7f:a9:bc:ed:c7:6c:ad:ae:
                    4c:83:cf:20:53:01:76:3b:09:c1:2b:f4:d1:55:0f:
                    f0:e6:84:d6:11:c6:97:e9:89:5e:04:eb:1b:1b:78:
                    ea:c3:ee:d8:b7:43:e6:9f:90:ed:73:3b:9b:5e:ba:
                    30:a3:e0:2f:62:93:6a:6e:9e:d9:16:b8:b8:f8:5a:
                    64:ba:9b:43:e8:26:5b:6b:fd:c1:23:f5:1c:6b:15:
                    66:17:f0:20:3b:88:4a:d6:61:ab:2f:6e:55:59:81:
                    9c:76:1c:55:02:be:bd:50:bf:d9:c4:b0:d2:b8:53:
                    bb:18:29:bb:e1:0e:38:3f:8c:75:f9:37:c4:24:96:
                    bf:f1:36:8c:74:87:84:6d:c0:7d:dc:95:6b:07:5d:
                    53:61:43:81:7c:db:df:eb:ef:05
                Exponent: 65537 (0x10001)
        X509v3 extensions:
            X509v3 Key Usage: critical
                Key Encipherment
            X509v3 Basic Constraints: 
                CA:FALSE
            X509v3 Extended Key Usage: 
                Any Extended Key Usage
            X509v3 Subject Key Identifier: 
                AE:16:FA:AE:12:4A:1C:9A:2D:AA:DC:C3:90:00:7C:77:BF:BF:FA:CA
            X509v3 Authority Key Identifier: 
                keyid:17:7A:94:32:DE:D1:83:59:6E:B2:51:40:E5:5B:CF:A3:28:14:30:AA

            Authority Information Access: 
                CA Issuers - URI:https://herrenschmidt.pro/ca/encrypt-ca.cer

            X509v3 CRL Distribution Points: 

                Full Name:
                  URI:https://herrenschmidt.pro/ca/encrypt-ca.crl

    Signature Algorithm: sha256WithRSAEncryption
         a1:87:db:b5:6f:8b:04:19:be:16:ed:e9:c2:db:1a:92:99:d9:
         da:5a:3e:63:9e:a2:44:8f:62:f2:8b:4d:51:b4:08:47:f7:68:
         e7:f4:a8:43:66:0e:33:02:64:79:e4:b6:a2:42:b4:cc:74:54:
         c9:5d:bc:82:15:26:97:8f:c4:79:8d:bc:cc:73:ec:88:12:63:
         3f:18:8d:83:41:9e:6b:12:99:7c:cb:b8:92:43:7e:2b:a6:14:
         70:2f:4b:83:7e:10:74:8b:ef:1e:49:78:ec:2f:a6:45:8f:64:
         ca:a2:91:d0:00:68:4a:c7:fd:57:bf:ef:f5:d0:90:d0:22:0e:
         ae:1a:bf:28:f1:59:2c:40:20:4e:3d:8d:a7:90:18:79:49:7a:
         b0:e2:35:4e:5e:e1:70:6b:a2:65:90:47:03:61:f9:15:48:fd:
         fc:f5:48:dc:18:9c:d0:f6:c5:c1:27:0d:8a:0e:1a:a4:c8:df:
         b4:0c:d8:68:98:01:4b:0b:e5:5c:6e:97:8b:f4:4c:b5:98:f6:
         b0:44:54:30:29:94:81:c7:f2:17:a3:b2:33:24:5b:37:56:9e:
         2f:50:46:db:98:b7:0c:aa:b3:2c:a6:82:87:b3:34:84:d4:f5:
         be:f8:c7:4f:bb:6a:42:ed:57:b0:5d:c6:61:59:9c:fe:7f:d7:
         4d:1c:70:38:5b:cd:ef:17:d2:5f:3d:d3:e5:5b:a7:30:a5:3f:
         e2:6a:37:18:b3:ec:2a:e2:48:4c:32:bb:96:79:a3:5f:a9:f9:
         95:41:8c:ba:8c:7a:aa:79:76:12:51:25:5c:81:03:43:08:1d:
         47:71:ff:9f:0d:d6:92:e2:8a:21:78:18:87:13:67:6b:8e:aa:
         a5:bc:4c:e0:8b:04:b1:7e:b3:35:31:b7:a2:50:18:58:c2:7d:
         29:8c:2a:37:3d:8b:9e:16:0d:a0:07:6f:e6:98:63:cb:8d:a2:
         ee:ff:e6:de:b2:d3:21:28:60:57:e3:a2:87:d0:77:99:60:f5:
         24:d0:cc:9f:3f:73
-----BEGIN CERTIFICATE-----
MIIFaTCCA9GgAwIBAgIBATANBgkqhkiG9w0BAQsFADBtMQswCQYDVQQGEwJGUjET
MBEGA1UECgwKUHJvamV0IFBLSTEpMCcGA1UECwwgUHJvamV0IFBLSSBDZXJ0aWZp
Y2F0ZSBBdXRob3JpdHkxHjAcBgNVBAMMFVByb2pldCBQS0kgRW5jcnlwdCBDQTAe
Fw0xOTAzMDcxNTE4NTJaFw0yMTAzMDYxNTE4NTJaMIGJMQswCQYDVQQGEwJGUjEM
MAoGA1UECAwDVkFSMQ8wDQYDVQQHDAZUT1VMT04xEzARBgNVBAoMClByb2pldCBQ
S0kxKTAnBgNVBAsMIFByb2pldCBQS0kgQ2VydGlmaWNhdGUgQXV0aG9yaXR5MRsw
GQYDVQQDDBJQcm9qZXQgUEtJIFJvb3QgQ0EwggGiMA0GCSqGSIb3DQEBAQUAA4IB
jwAwggGKAoIBgQDY4QQB4jP3QoQuJ12Z7JaCj5+XJ6Ux6bgXonbrA0kbDYpdP6T6
xrXt09xd+Mt6X0tKLrnPpvnSP5MxOb5Mr+0JzCJ5WVHMOE2JcvHQghwdD9z/DpCx
uc6ufP7Qnov7YQfXTEZrehZQoIzBoUqO/CG+rjvjzqSZGUMjQm+HtIcLn8wf8bgb
I+/Vk2QDRG7N0ZS2h47L1I1lO+x5GOoW75aXRk99spGvYEG7JaX59kIOgxS4oq3q
qz7Jqs2XRTtmM9peurLW6Q17DABmuExa+ZVlM4kKckTB1dlC2lA3I6WwC56/+ABx
8id/qbztx2ytrkyDzyBTAXY7CcEr9NFVD/DmhNYRxpfpiV4E6xsbeOrD7ti3Q+af
kO1zO5teujCj4C9ik2puntkWuLj4WmS6m0PoJltr/cEj9RxrFWYX8CA7iErWYasv
blVZgZx2HFUCvr1Qv9nEsNK4U7sYKbvhDjg/jHX5N8Qklr/xNox0h4RtwH3clWsH
XVNhQ4F829/r7wUCAwEAAaOB9jCB8zAOBgNVHQ8BAf8EBAMCBSAwCQYDVR0TBAIw
ADAPBgNVHSUECDAGBgRVHSUAMB0GA1UdDgQWBBSuFvquEkocmi2q3MOQAHx3v7/6
yjAfBgNVHSMEGDAWgBQXepQy3tGDWW6yUUDlW8+jKBQwqjBHBggrBgEFBQcBAQQ7
MDkwNwYIKwYBBQUHMAKGK2h0dHBzOi8vaGVycmVuc2NobWlkdC5wcm8vY2EvZW5j
cnlwdC1jYS5jZXIwPAYDVR0fBDUwMzAxoC+gLYYraHR0cHM6Ly9oZXJyZW5zY2ht
aWR0LnByby9jYS9lbmNyeXB0LWNhLmNybDANBgkqhkiG9w0BAQsFAAOCAYEAoYfb
tW+LBBm+Fu3pwtsakpnZ2lo+Y56iRI9i8otNUbQIR/do5/SoQ2YOMwJkeeS2okK0
zHRUyV28ghUml4/EeY28zHPsiBJjPxiNg0GeaxKZfMu4kkN+K6YUcC9Lg34QdIvv
Hkl47C+mRY9kyqKR0ABoSsf9V7/v9dCQ0CIOrhq/KPFZLEAgTj2Np5AYeUl6sOI1
Tl7hcGuiZZBHA2H5FUj9/PVI3Bic0PbFwScNig4apMjftAzYaJgBSwvlXG6Xi/RM
tZj2sERUMCmUgcfyF6OyMyRbN1aeL1BG25i3DKqzLKaCh7M0hNT1vvjHT7tqQu1X
sF3GYVmc/n/XTRxwOFvN7xfSXz3T5VunMKU/4mo3GLPsKuJITDK7lnmjX6n5lUGM
uox6qnl2ElElXIEDQwgdR3H/nw3WkuKKIXgYhxNna46qpbxM4IsEsX6zNTG3olAY
WMJ9KYwqNz2LnhYNoAdv5phjy42i7v/m3rLTIShgV+Oih9B3mWD1JNDMnz9z
-----END CERTIFICATE-----
