Certificate:
    Data:
        Version: 3 (0x2)
        Serial Number: 2 (0x2)
    Signature Algorithm: sha256WithRSAEncryption
        Issuer: C=FR, O=Projet PKI, OU=Projet PKI Certificate Authority, CN=Projet PKI Encrypt CA
        Validity
            Not Before: Mar  8 09:21:49 2019 GMT
            Not After : Jan  1 00:00:00 2020 GMT
        Subject: C=FR, ST=Var, L=Toulon, O=Projet PKI, OU=test, CN=test
        Subject Public Key Info:
            Public Key Algorithm: rsaEncryption
                Public-Key: (3072 bit)
                Modulus:
                    00:ab:f4:02:cb:55:26:7f:d4:38:3a:71:2b:81:65:
                    21:b7:ea:27:34:58:79:e8:bf:b9:15:8a:59:2d:34:
                    4b:b4:86:d1:d1:ba:7f:d8:39:0c:c4:b1:25:c6:51:
                    07:29:ad:b8:1b:1e:91:c5:67:7d:39:a6:f7:23:d2:
                    32:37:24:a2:60:ba:1b:ac:0b:d8:c9:3c:ee:28:2b:
                    08:31:f0:6c:4d:da:bb:55:e0:1c:7c:3b:4f:31:c7:
                    79:00:15:f1:c2:3c:29:f4:20:45:05:1d:65:fa:af:
                    67:de:f7:4d:c3:5d:48:4e:2d:80:7c:42:8a:fd:57:
                    b7:08:97:bc:1b:84:39:f8:0b:4c:00:c9:3e:2d:97:
                    86:59:dd:95:8b:19:eb:11:42:55:98:65:ea:31:31:
                    aa:72:77:9c:24:b0:f5:06:0b:81:34:76:b4:59:88:
                    77:75:88:f2:98:9c:14:cc:4c:2b:e6:83:76:cb:ae:
                    73:f7:8b:a0:a6:0e:08:eb:57:f9:10:cd:75:52:ff:
                    bc:a6:97:34:27:97:0e:88:be:6e:db:2e:d3:f5:ab:
                    a5:b6:51:fb:21:21:9b:55:28:c5:c9:0e:28:ff:98:
                    89:72:6b:0d:48:03:16:14:70:42:59:88:cd:32:45:
                    26:36:d6:e6:02:bd:3b:22:95:de:c3:94:f4:8c:33:
                    0d:8f:a6:db:76:5f:47:83:c0:75:e5:ff:2b:1a:cc:
                    19:2d:0d:72:8f:70:e3:de:df:fb:b2:a2:1e:11:a5:
                    e7:23:6b:76:5e:6d:f6:25:7c:62:9d:2b:cb:b0:a6:
                    b6:42:93:34:f9:43:b5:47:47:47:8e:66:b7:42:e1:
                    bb:11:2c:98:c3:c3:22:44:a1:a4:14:63:d5:6e:a7:
                    33:25:74:28:e9:68:e4:b9:28:89:4e:62:45:73:7e:
                    d2:e6:cb:76:4e:4f:f5:e8:49:16:62:35:80:3c:25:
                    12:7e:00:a1:70:63:a6:3f:e7:36:63:cc:a0:34:ff:
                    0c:30:c7:d7:48:36:25:5e:3a:f7
                Exponent: 65537 (0x10001)
        X509v3 extensions:
            X509v3 Key Usage: critical
                Encipher Only
            X509v3 Basic Constraints: 
                CA:FALSE
            X509v3 Extended Key Usage: 
                Any Extended Key Usage
            X509v3 Subject Key Identifier: 
                5C:CB:63:FD:E0:74:3E:E5:4D:AF:5A:1E:4C:4D:E8:DF:12:35:73:DA
            X509v3 Authority Key Identifier: 
                keyid:17:7A:94:32:DE:D1:83:59:6E:B2:51:40:E5:5B:CF:A3:28:14:30:AA

            Authority Information Access: 
                CA Issuers - URI:https://herrenschmidt.pro/ca/encrypt-ca.cer

            X509v3 CRL Distribution Points: 

                Full Name:
                  URI:https://herrenschmidt.pro/ca/encrypt-ca.crl

    Signature Algorithm: sha256WithRSAEncryption
         6b:2b:1a:7a:e3:ab:5c:69:a1:92:4b:56:81:45:6b:fb:45:d6:
         e4:94:0d:bf:c2:ba:f7:72:ef:4b:3e:3d:44:93:27:db:17:8e:
         4a:8d:45:a4:da:8f:b1:f1:54:5e:0e:5a:67:4c:3f:75:70:ee:
         fd:35:fa:97:2d:e6:c7:bb:c2:5e:22:f2:cf:02:4d:f1:56:75:
         d6:80:d4:bc:5b:b6:59:04:19:f6:f0:28:be:e0:17:0b:44:82:
         17:bf:40:69:d8:db:3f:86:4d:e4:f2:fb:86:dc:f3:29:d2:17:
         fe:81:aa:93:4f:44:74:b8:a7:ba:1b:7b:9e:aa:b6:7c:48:a6:
         a5:05:1c:04:e4:8b:a1:66:74:46:87:9b:1b:c4:3e:97:b1:c3:
         6e:1d:6b:a2:4d:bb:62:dd:78:40:29:77:0e:c6:32:49:6c:25:
         4b:5d:40:20:83:09:e1:9e:c5:2d:16:4f:b8:e0:c3:54:a1:96:
         3b:c2:57:ca:46:01:a7:8b:af:a6:05:35:ef:67:94:8b:71:8e:
         7f:a0:b0:a7:68:e0:a0:ee:31:7f:e6:2e:ea:a1:f4:5a:6f:f4:
         8f:74:18:80:34:3e:d5:b1:ca:1c:03:1d:f4:2a:a2:36:56:78:
         ba:f5:cf:1c:ed:d7:12:c1:1f:bb:1f:b2:4f:0c:13:98:82:c9:
         d6:9b:ad:39:5f:75:a0:35:4c:a7:8a:d6:fe:8b:88:b9:8d:fe:
         1f:48:8c:55:e4:ed:ed:3f:2b:19:78:5f:f2:38:e4:91:1d:bd:
         6c:a8:69:b2:4a:10:a3:e7:4a:95:3f:69:3d:16:22:f1:45:96:
         86:4c:83:5a:6d:31:fd:9d:d3:1f:cc:99:db:4b:71:d7:9a:cc:
         5e:65:22:10:bb:d9:12:e2:46:2b:33:55:65:a5:23:82:a4:fb:
         db:b7:41:38:2e:f9:33:80:4f:7c:97:fb:95:e4:5f:b0:b8:f0:
         2a:63:b7:05:4c:37:58:97:00:09:6c:20:a4:2d:2f:3a:39:20:
         16:a5:d6:29:85:d0
-----BEGIN CERTIFICATE-----
MIIFPjCCA6agAwIBAgIBAjANBgkqhkiG9w0BAQsFADBtMQswCQYDVQQGEwJGUjET
MBEGA1UECgwKUHJvamV0IFBLSTEpMCcGA1UECwwgUHJvamV0IFBLSSBDZXJ0aWZp
Y2F0ZSBBdXRob3JpdHkxHjAcBgNVBAMMFVByb2pldCBQS0kgRW5jcnlwdCBDQTAe
Fw0xOTAzMDgwOTIxNDlaFw0yMDAxMDEwMDAwMDBaMF8xCzAJBgNVBAYTAkZSMQww
CgYDVQQIDANWYXIxDzANBgNVBAcMBlRvdWxvbjETMBEGA1UECgwKUHJvamV0IFBL
STENMAsGA1UECwwEdGVzdDENMAsGA1UEAwwEdGVzdDCCAaIwDQYJKoZIhvcNAQEB
BQADggGPADCCAYoCggGBAKv0AstVJn/UODpxK4FlIbfqJzRYeei/uRWKWS00S7SG
0dG6f9g5DMSxJcZRBymtuBsekcVnfTmm9yPSMjckomC6G6wL2Mk87igrCDHwbE3a
u1XgHHw7TzHHeQAV8cI8KfQgRQUdZfqvZ973TcNdSE4tgHxCiv1XtwiXvBuEOfgL
TADJPi2XhlndlYsZ6xFCVZhl6jExqnJ3nCSw9QYLgTR2tFmId3WI8picFMxMK+aD
dsuuc/eLoKYOCOtX+RDNdVL/vKaXNCeXDoi+btsu0/WrpbZR+yEhm1UoxckOKP+Y
iXJrDUgDFhRwQlmIzTJFJjbW5gK9OyKV3sOU9IwzDY+m23ZfR4PAdeX/KxrMGS0N
co9w497f+7KiHhGl5yNrdl5t9iV8Yp0ry7CmtkKTNPlDtUdHR45mt0LhuxEsmMPD
IkShpBRj1W6nMyV0KOlo5LkoiU5iRXN+0ubLdk5P9ehJFmI1gDwlEn4AoXBjpj/n
NmPMoDT/DDDH10g2JV469wIDAQABo4H2MIHzMA4GA1UdDwEB/wQEAwIAATAJBgNV
HRMEAjAAMA8GA1UdJQQIMAYGBFUdJQAwHQYDVR0OBBYEFFzLY/3gdD7lTa9aHkxN
6N8SNXPaMB8GA1UdIwQYMBaAFBd6lDLe0YNZbrJRQOVbz6MoFDCqMEcGCCsGAQUF
BwEBBDswOTA3BggrBgEFBQcwAoYraHR0cHM6Ly9oZXJyZW5zY2htaWR0LnByby9j
YS9lbmNyeXB0LWNhLmNlcjA8BgNVHR8ENTAzMDGgL6AthitodHRwczovL2hlcnJl
bnNjaG1pZHQucHJvL2NhL2VuY3J5cHQtY2EuY3JsMA0GCSqGSIb3DQEBCwUAA4IB
gQBrKxp646tcaaGSS1aBRWv7RdbklA2/wrr3cu9LPj1EkyfbF45KjUWk2o+x8VRe
DlpnTD91cO79NfqXLebHu8JeIvLPAk3xVnXWgNS8W7ZZBBn28Ci+4BcLRIIXv0Bp
2Ns/hk3k8vuG3PMp0hf+gaqTT0R0uKe6G3ueqrZ8SKalBRwE5IuhZnRGh5sbxD6X
scNuHWuiTbti3XhAKXcOxjJJbCVLXUAggwnhnsUtFk+44MNUoZY7wlfKRgGni6+m
BTXvZ5SLcY5/oLCnaOCg7jF/5i7qofRab/SPdBiAND7VscocAx30KqI2Vni69c8c
7dcSwR+7H7JPDBOYgsnWm605X3WgNUynitb+i4i5jf4fSIxV5O3tPysZeF/yOOSR
Hb1sqGmyShCj50qVP2k9FiLxRZaGTINabTH9ndMfzJnbS3HXmsxeZSIQu9kS4kYr
M1VlpSOCpPvbt0E4LvkzgE98l/uV5F+wuPAqY7cFTDdYlwAJbCCkLS86OSAWpdYp
hdA=
-----END CERTIFICATE-----
