Certificate:
    Data:
        Version: 3 (0x2)
        Serial Number: 3 (0x3)
    Signature Algorithm: sha256WithRSAEncryption
        Issuer: C=FR, O=Projet PKI, OU=Projet PKI Certificate Authority, CN=Projet PKI Encrypt CA
        Validity
            Not Before: Mar  8 09:28:45 2019 GMT
            Not After : Jan  1 00:00:00 2020 GMT
        Subject: C=FR, ST=Var, L=Toulon, O=Projet PKI, OU=test, CN=test.fr
        Subject Public Key Info:
            Public Key Algorithm: rsaEncryption
                Public-Key: (3072 bit)
                Modulus:
                    00:bc:97:51:43:62:cd:3c:2f:12:ad:de:5b:b9:de:
                    5e:dd:28:fd:e3:cf:c0:3e:91:f0:53:fe:d9:7e:f7:
                    c0:92:67:95:57:72:2d:f1:1c:83:bc:da:c5:bb:dd:
                    da:a6:dd:7b:7b:e1:3d:52:ce:2c:b6:02:d0:65:3f:
                    52:27:b4:36:24:b2:3d:8f:f4:87:c9:37:e2:79:d8:
                    83:27:75:75:0f:ce:95:e9:bb:44:8c:e3:83:ee:01:
                    95:ba:34:c7:66:d7:8a:17:1e:66:88:1e:36:6f:65:
                    b0:de:27:fa:4f:1a:c0:11:34:56:1b:ef:ef:2d:8b:
                    e1:42:dc:4f:6e:2e:6d:04:14:b6:2f:21:0c:0d:16:
                    7c:76:5d:0b:ce:52:eb:db:c8:cf:e1:dd:cc:f3:55:
                    c4:a9:45:46:c4:3a:c3:09:df:00:97:f7:e2:f7:24:
                    1f:0c:f9:c8:5f:0d:43:84:a5:33:63:57:7c:54:e6:
                    47:e9:2f:7c:48:23:a7:4f:46:dc:5d:73:b0:49:ab:
                    f3:f8:1a:e7:e5:80:0b:06:d8:cd:31:45:29:ab:26:
                    8e:56:a1:c7:71:1f:ce:fc:05:f8:f2:b8:88:d3:bb:
                    ce:a4:37:59:e2:ae:f0:74:6a:c2:8a:c8:cf:d6:4e:
                    93:19:82:6d:1b:52:75:ea:0c:75:8e:c8:ed:e0:47:
                    a7:b8:21:4b:52:5e:e6:40:d4:d2:c1:b5:20:33:48:
                    75:0c:51:69:fb:e2:b2:ee:59:28:0d:89:f8:73:6f:
                    38:7d:12:2f:15:08:a4:af:a2:2e:97:49:f3:19:51:
                    9e:8b:05:f2:f5:db:17:a5:04:92:b6:4f:61:f4:0f:
                    74:48:52:88:4d:b0:05:09:e3:4e:3e:05:02:4e:78:
                    d7:2e:78:06:e5:ec:22:51:41:4f:2b:bd:60:37:83:
                    3f:47:db:1d:1b:34:d8:85:7b:f0:c6:83:f4:83:ee:
                    f9:46:e5:5b:5a:80:d4:b1:7e:99:28:c2:2b:65:2e:
                    87:95:d3:f6:e7:b3:61:ac:49:67
                Exponent: 65537 (0x10001)
        X509v3 extensions:
            X509v3 Key Usage: critical
                Encipher Only
            X509v3 Basic Constraints: 
                CA:FALSE
            X509v3 Extended Key Usage: 
                Any Extended Key Usage
            X509v3 Subject Key Identifier: 
                ED:B6:DA:27:09:E9:13:79:A1:8D:FC:7B:C2:3A:AA:A5:1D:4B:2A:D6
            X509v3 Authority Key Identifier: 
                keyid:17:7A:94:32:DE:D1:83:59:6E:B2:51:40:E5:5B:CF:A3:28:14:30:AA

            Authority Information Access: 
                CA Issuers - URI:https://herrenschmidt.pro/ca/encrypt-ca.cer

            X509v3 CRL Distribution Points: 

                Full Name:
                  URI:https://herrenschmidt.pro/ca/encrypt-ca.crl

    Signature Algorithm: sha256WithRSAEncryption
         47:a6:1f:19:99:7f:92:5a:ce:12:8f:53:f9:82:ba:65:e9:37:
         58:1e:38:7d:14:52:14:db:2f:48:54:17:7f:02:3c:46:14:af:
         23:f2:db:42:19:ab:21:80:ca:1e:82:17:43:56:4b:9b:1e:44:
         b9:9d:25:50:39:7b:39:53:0d:5c:7f:4a:70:b4:64:53:60:31:
         f4:17:08:18:56:53:8a:52:15:85:ff:53:32:78:c7:ee:98:55:
         2a:f7:7e:aa:0e:b9:81:90:32:94:5e:f3:65:c0:4c:a8:37:c4:
         91:d8:ed:4d:2a:a6:83:63:eb:6c:eb:61:9d:3e:fb:bc:c0:bc:
         2e:07:62:9b:1d:39:de:81:d6:95:e4:32:83:4c:91:4e:e2:a1:
         13:72:4d:a4:3e:1c:8f:bc:97:59:57:d9:45:ce:c7:05:b7:d7:
         f5:91:e9:f7:7e:42:c1:6f:73:77:ad:d9:ea:4a:c4:30:58:ac:
         d4:5c:ab:05:b1:04:bd:7a:e8:45:17:9c:1f:90:86:1f:6a:8f:
         d1:76:4a:83:99:f3:aa:a9:e6:36:ea:42:81:12:97:f8:60:93:
         41:46:3f:06:91:88:54:50:96:35:01:5b:13:b4:48:ca:0a:fd:
         9c:75:b8:d8:ec:8e:b9:78:3f:ad:d9:27:4f:c5:ce:fd:44:6a:
         6e:9e:fc:2c:f2:31:da:c2:42:4b:10:96:0e:d5:99:8d:c2:60:
         06:76:63:b9:d5:ff:79:c6:86:2c:02:92:42:b5:f7:cb:32:65:
         07:91:bd:e4:4a:6f:df:74:92:d6:25:9e:a5:49:dd:04:44:e2:
         a8:f6:a7:68:44:2e:4c:59:86:ac:70:79:95:d1:f6:0b:f5:f8:
         35:83:67:ca:40:e1:87:74:46:1a:72:b1:bb:3a:be:7e:06:a8:
         a7:d4:d7:21:79:e6:d3:6c:e0:93:51:06:83:cf:bb:df:0d:a8:
         09:84:47:f8:ce:1e:b9:07:d8:ac:d9:a2:fb:c9:7a:c6:de:4c:
         3f:3f:47:a9:fc:5d
-----BEGIN CERTIFICATE-----
MIIFQTCCA6mgAwIBAgIBAzANBgkqhkiG9w0BAQsFADBtMQswCQYDVQQGEwJGUjET
MBEGA1UECgwKUHJvamV0IFBLSTEpMCcGA1UECwwgUHJvamV0IFBLSSBDZXJ0aWZp
Y2F0ZSBBdXRob3JpdHkxHjAcBgNVBAMMFVByb2pldCBQS0kgRW5jcnlwdCBDQTAe
Fw0xOTAzMDgwOTI4NDVaFw0yMDAxMDEwMDAwMDBaMGIxCzAJBgNVBAYTAkZSMQww
CgYDVQQIDANWYXIxDzANBgNVBAcMBlRvdWxvbjETMBEGA1UECgwKUHJvamV0IFBL
STENMAsGA1UECwwEdGVzdDEQMA4GA1UEAwwHdGVzdC5mcjCCAaIwDQYJKoZIhvcN
AQEBBQADggGPADCCAYoCggGBALyXUUNizTwvEq3eW7neXt0o/ePPwD6R8FP+2X73
wJJnlVdyLfEcg7zaxbvd2qbde3vhPVLOLLYC0GU/Uie0NiSyPY/0h8k34nnYgyd1
dQ/Olem7RIzjg+4Blbo0x2bXihceZogeNm9lsN4n+k8awBE0Vhvv7y2L4ULcT24u
bQQUti8hDA0WfHZdC85S69vIz+HdzPNVxKlFRsQ6wwnfAJf34vckHwz5yF8NQ4Sl
M2NXfFTmR+kvfEgjp09G3F1zsEmr8/ga5+WACwbYzTFFKasmjlahx3EfzvwF+PK4
iNO7zqQ3WeKu8HRqworIz9ZOkxmCbRtSdeoMdY7I7eBHp7ghS1Je5kDU0sG1IDNI
dQxRafvisu5ZKA2J+HNvOH0SLxUIpK+iLpdJ8xlRnosF8vXbF6UEkrZPYfQPdEhS
iE2wBQnjTj4FAk541y54BuXsIlFBTyu9YDeDP0fbHRs02IV78MaD9IPu+UblW1qA
1LF+mSjCK2Uuh5XT9uezYaxJZwIDAQABo4H2MIHzMA4GA1UdDwEB/wQEAwIAATAJ
BgNVHRMEAjAAMA8GA1UdJQQIMAYGBFUdJQAwHQYDVR0OBBYEFO222icJ6RN5oY38
e8I6qqUdSyrWMB8GA1UdIwQYMBaAFBd6lDLe0YNZbrJRQOVbz6MoFDCqMEcGCCsG
AQUFBwEBBDswOTA3BggrBgEFBQcwAoYraHR0cHM6Ly9oZXJyZW5zY2htaWR0LnBy
by9jYS9lbmNyeXB0LWNhLmNlcjA8BgNVHR8ENTAzMDGgL6AthitodHRwczovL2hl
cnJlbnNjaG1pZHQucHJvL2NhL2VuY3J5cHQtY2EuY3JsMA0GCSqGSIb3DQEBCwUA
A4IBgQBHph8ZmX+SWs4Sj1P5grpl6TdYHjh9FFIU2y9IVBd/AjxGFK8j8ttCGash
gMoeghdDVkubHkS5nSVQOXs5Uw1cf0pwtGRTYDH0FwgYVlOKUhWF/1MyeMfumFUq
936qDrmBkDKUXvNlwEyoN8SR2O1NKqaDY+ts62GdPvu8wLwuB2KbHTnegdaV5DKD
TJFO4qETck2kPhyPvJdZV9lFzscFt9f1ken3fkLBb3N3rdnqSsQwWKzUXKsFsQS9
euhFF5wfkIYfao/RdkqDmfOqqeY26kKBEpf4YJNBRj8GkYhUUJY1AVsTtEjKCv2c
dbjY7I65eD+t2SdPxc79RGpunvws8jHawkJLEJYO1ZmNwmAGdmO51f95xoYsApJC
tffLMmUHkb3kSm/fdJLWJZ6lSd0EROKo9qdoRC5MWYascHmV0fYL9fg1g2fKQOGH
dEYacrG7Or5+Bqin1NcheebTbOCTUQaDz7vfDagJhEf4zh65B9is2aL7yXrG3kw/
P0ep/F0=
-----END CERTIFICATE-----
